BL51 BANKED LINKER/LOCATER V6.22.2.0                                                    04/04/2025  17:43:52  PAGE 1


BL51 BANKED LINKER/LOCATER V6.22.2.0, INVOKED BY:
D:\KEIL5-1\C51\BIN\BL51.EXE .\Objects\main.obj, .\Objects\onewire.obj, .\Objects\iic.obj, .\Objects\ds1302.obj TO .\Obje
>> cts\test PRINT (.\Listings\test.m51) RAMSIZE (256)


MEMORY MODEL: LARGE WITH FLOATING POINT ARITHMETIC


INPUT MODULES INCLUDED:
  .\Objects\main.obj (MAIN)
  .\Objects\onewire.obj (ONEWIRE)
  .\Objects\iic.obj (IIC)
  .\Objects\ds1302.obj (DS1302)
  D:\KEIL5-1\C51\LIB\C51FPL.LIB (?C?FPADD)
  D:\KEIL5-1\C51\LIB\C51FPL.LIB (?C?FPMUL)
  D:\KEIL5-1\C51\LIB\C51FPL.LIB (?C?FCAST)
  D:\KEIL5-1\C51\LIB\C51FPL.LIB (?C?CASTF)
  D:\KEIL5-1\C51\LIB\C51FPL.LIB (?C?FPGETOPN)
  D:\KEIL5-1\C51\LIB\C51L.LIB (?C_STARTUP)
  D:\KEIL5-1\C51\LIB\C51L.LIB (?C?IMUL)
  D:\KEIL5-1\C51\LIB\C51L.LIB (?C?UIDIV)
  D:\KEIL5-1\C51\LIB\C51L.LIB (?C?SIDIV)
  D:\KEIL5-1\C51\LIB\C51L.LIB (?C?IILDX)
  D:\KEIL5-1\C51\LIB\C51L.LIB (?C?LMUL)
  D:\KEIL5-1\C51\LIB\C51L.LIB (?C?ULDIV)
  D:\KEIL5-1\C51\LIB\C51L.LIB (?C?SLDIV)
  D:\KEIL5-1\C51\LIB\C51L.LIB (?C?LNEG)
  D:\KEIL5-1\C51\LIB\C51L.LIB (?C?ULCMP)
  D:\KEIL5-1\C51\LIB\C51L.LIB (?C?LSHL)
  D:\KEIL5-1\C51\LIB\C51L.LIB (?C?LSTXDATA)
  D:\KEIL5-1\C51\LIB\C51L.LIB (?C?LSTKXDATA)
  D:\KEIL5-1\C51\LIB\C51L.LIB (?C_INIT)


LINK MAP OF MODULE:  .\Objects\test (MAIN)


            TYPE    BASE      LENGTH    RELOCATION   SEGMENT NAME
            -----------------------------------------------------

            * * * * * * *   D A T A   M E M O R Y   * * * * * * *
            REG     0000H     0008H     ABSOLUTE     "REG BANK 0"
            DATA    0008H     0001H     UNIT         _DATA_GROUP_
                    0009H     0017H                  *** GAP ***
            BIT     0020H.0   0001H.5   UNIT         ?BI?MAIN
            BIT     0021H.5   0000H.1   UNIT         _BIT_GROUP_
                    0021H.6   0000H.2                *** GAP ***
            IDATA   0022H     0001H     UNIT         ?STACK

            * * * * * * *  X D A T A   M E M O R Y  * * * * * * *
            XDATA   0000H     00C5H     UNIT         ?XD?MAIN
            XDATA   00C5H     0009H     UNIT         _XDATA_GROUP_
            XDATA   00CEH     0006H     UNIT         ?XD?DS1302

            * * * * * * *   C O D E   M E M O R Y   * * * * * * *
            CODE    0000H     0003H     ABSOLUTE     
                    0003H     0008H                  *** GAP ***
            CODE    000BH     0003H     ABSOLUTE     
BL51 BANKED LINKER/LOCATER V6.22.2.0                                                  04/04/2025  17:43:52  PAGE 2


            CODE    000EH     0044H     UNIT         ?C?LDIV
            CODE    0052H     000FH     UNIT         ?PR?I2CSTART?IIC
                    0061H     0002H                  *** GAP ***
            CODE    0063H     0003H     ABSOLUTE     
            CODE    0066H     04FCH     UNIT         ?C?LIB_CODE
            CODE    0562H     03DAH     UNIT         ?PR?TAST_SHOW?MAIN
            CODE    093CH     034AH     UNIT         ?PR?MAIN?MAIN
            CODE    0C86H     0246H     UNIT         ?PR?TAST_LED?MAIN
            CODE    0ECCH     0154H     UNIT         ?PR?TAST_KEY?MAIN
            CODE    1020H     011CH     UNIT         ?PR?KEY_SCAN?MAIN
            CODE    113CH     010CH     UNIT         ?C_INITSEG
            CODE    1248H     00CBH     UNIT         ?PR?TAST_CLOCK?MAIN
            CODE    1313H     009EH     UNIT         ?PR?TIMER0?MAIN
            CODE    13B1H     008CH     UNIT         ?C_C51STARTUP
            CODE    143DH     0080H     UNIT         ?PR?TEMP_GET?ONEWIRE
            CODE    14BDH     0070H     UNIT         ?PR?TIMER2?MAIN
            CODE    152DH     0067H     UNIT         ?PR?TIME_INIT?DS1302
            CODE    1594H     005FH     UNIT         ?PR?ULTRA?MAIN
            CODE    15F3H     0040H     UNIT         ?PR?TIME_GET?DS1302
            CODE    1633H     003DH     UNIT         ?PR?_READ_DS1302_BYTE?DS1302
            CODE    1670H     003CH     UNIT         ?PR?_KEY_W?MAIN
            CODE    16ACH     0038H     UNIT         ?CO?MAIN
            CODE    16E4H     0035H     UNIT         ?PR?_I2CSENDBYTE?IIC
            CODE    1719H     002FH     UNIT         ?PR?SEND_WAVE?MAIN
            CODE    1748H     002DH     UNIT         ?PR?ALL_INIT?MAIN
            CODE    1775H     0028H     UNIT         ?PR?_WRITE_DS18B20?ONEWIRE
            CODE    179DH     0027H     UNIT         ?PR?READ_DS18B20?ONEWIRE
            CODE    17C4H     0027H     UNIT         ?PR?INIT_DS18B20?ONEWIRE
            CODE    17EBH     0026H     UNIT         ?PR?I2CRECEIVEBYTE?IIC
            CODE    1811H     0024H     UNIT         ?PR?KEY_R?MAIN
            CODE    1835H     0020H     UNIT         ?PR?_DELAY_MS?MAIN
            CODE    1855H     001EH     UNIT         ?PR?_DELAY_ONEWIRE?ONEWIRE
            CODE    1873H     001DH     UNIT         ?PR?I2CWAITACK?IIC
            CODE    1890H     001CH     UNIT         ?PR?I2CSTOP?IIC
            CODE    18ACH     001CH     UNIT         ?PR?_WRITE_DS1302?DS1302
            CODE    18C8H     001AH     UNIT         ?PR?_I2C_DELAY?IIC
            CODE    18E2H     0019H     UNIT         ?PR?_AT_W?IIC
            CODE    18FBH     0018H     UNIT         ?PR?_I2CSENDACK?IIC
            CODE    1913H     0018H     UNIT         ?PR?_AT_R?IIC
            CODE    192BH     0018H     UNIT         ?PR?_AD_R?IIC
            CODE    1943H     0015H     UNIT         ?PR?TIMER0_INIT?MAIN
            CODE    1958H     0015H     UNIT         ?PR?_AD_W?IIC
            CODE    196DH     0014H     UNIT         ?PR?_WRITE_DS1302_BYTE?DS1302
            CODE    1981H     0012H     UNIT         ?PR?TIMER2_INIT?MAIN
            CODE    1993H     0009H     UNIT         ?PR?DELAY15US?MAIN



OVERLAY MAP OF MODULE:   .\Objects\test (MAIN)


SEGMENT                                  BIT_GROUP          DATA_GROUP          XDATA_GROUP
  +--> CALLED SEGMENT                 START    LENGTH     START    LENGTH     START    LENGTH
---------------------------------------------------------------------------------------------
?PR?TIMER0?MAIN                       -----    -----      -----    -----      -----    -----
  +--> ?CO?MAIN
  +--> ?PR?TAST_CLOCK?MAIN
BL51 BANKED LINKER/LOCATER V6.22.2.0                                                  04/04/2025  17:43:52  PAGE 3



?PR?TAST_CLOCK?MAIN                   -----    -----      -----    -----      -----    -----
  +--> ?PR?KEY_SCAN?MAIN

?PR?KEY_SCAN?MAIN                     -----    -----      -----    -----      00C5H    0002H
  +--> ?PR?_KEY_W?MAIN
  +--> ?PR?KEY_R?MAIN

*** NEW ROOT ***************************************************

?C_C51STARTUP                         -----    -----      -----    -----      -----    -----
  +--> ?PR?MAIN?MAIN
  +--> ?C_INITSEG

?PR?MAIN?MAIN                         -----    -----      -----    -----      00C7H    0002H
  +--> ?PR?ALL_INIT?MAIN
  +--> ?PR?TEMP_GET?ONEWIRE
  +--> ?PR?_DELAY_MS?MAIN
  +--> ?PR?TIMER0_INIT?MAIN
  +--> ?PR?TIMER2_INIT?MAIN
  +--> ?PR?TIME_INIT?DS1302
  +--> ?PR?TIME_GET?DS1302
  +--> ?PR?_AT_R?IIC
  +--> ?PR?_AT_W?IIC
  +--> ?PR?TAST_KEY?MAIN
  +--> ?PR?TAST_SHOW?MAIN
  +--> ?PR?ULTRA?MAIN
  +--> ?PR?_AD_R?IIC
  +--> ?PR?TAST_LED?MAIN

?PR?TEMP_GET?ONEWIRE                  -----    -----      -----    -----      00C9H    0005H
  +--> ?PR?INIT_DS18B20?ONEWIRE
  +--> ?PR?_WRITE_DS18B20?ONEWIRE
  +--> ?PR?_DELAY_ONEWIRE?ONEWIRE
  +--> ?PR?READ_DS18B20?ONEWIRE

?PR?INIT_DS18B20?ONEWIRE              0021H.5  0000H.1    -----    -----      -----    -----
  +--> ?PR?_DELAY_ONEWIRE?ONEWIRE

?PR?_WRITE_DS18B20?ONEWIRE            -----    -----      -----    -----      -----    -----
  +--> ?PR?_DELAY_ONEWIRE?ONEWIRE

?PR?READ_DS18B20?ONEWIRE              -----    -----      -----    -----      -----    -----
  +--> ?PR?_DELAY_ONEWIRE?ONEWIRE

?PR?TIME_INIT?DS1302                  -----    -----      -----    -----      00C9H    0001H
  +--> ?PR?_WRITE_DS1302_BYTE?DS1302

?PR?_WRITE_DS1302_BYTE?DS1302         -----    -----      -----    -----      -----    -----
  +--> ?PR?_WRITE_DS1302?DS1302

?PR?TIME_GET?DS1302                   -----    -----      -----    -----      -----    -----
  +--> ?PR?_READ_DS1302_BYTE?DS1302

?PR?_READ_DS1302_BYTE?DS1302          -----    -----      -----    -----      -----    -----
  +--> ?PR?_WRITE_DS1302?DS1302

BL51 BANKED LINKER/LOCATER V6.22.2.0                                                  04/04/2025  17:43:52  PAGE 4


?PR?_AT_R?IIC                         -----    -----      -----    -----      -----    -----
  +--> ?PR?I2CSTART?IIC
  +--> ?PR?I2CWAITACK?IIC
  +--> ?PR?I2CSTOP?IIC

?PR?I2CSTART?IIC                      -----    -----      -----    -----      -----    -----
  +--> ?PR?_I2C_DELAY?IIC

?PR?I2CWAITACK?IIC                    -----    -----      -----    -----      -----    -----
  +--> ?PR?_I2CSENDBYTE?IIC
  +--> ?PR?_I2C_DELAY?IIC

?PR?_I2CSENDBYTE?IIC                  -----    -----      -----    -----      -----    -----
  +--> ?PR?_I2C_DELAY?IIC

?PR?I2CSTOP?IIC                       -----    -----      -----    -----      -----    -----
  +--> ?PR?_I2CSENDBYTE?IIC
  +--> ?PR?I2CWAITACK?IIC
  +--> ?PR?I2CRECEIVEBYTE?IIC
  +--> ?PR?_I2CSENDACK?IIC
  +--> ?PR?_I2C_DELAY?IIC

?PR?I2CRECEIVEBYTE?IIC                -----    -----      -----    -----      -----    -----
  +--> ?PR?_I2C_DELAY?IIC

?PR?_I2CSENDACK?IIC                   -----    -----      -----    -----      -----    -----
  +--> ?PR?_I2C_DELAY?IIC

?PR?_AT_W?IIC                         -----    -----      -----    -----      -----    -----
  +--> ?PR?I2CSTART?IIC
  +--> ?PR?_I2CSENDBYTE?IIC
  +--> ?PR?I2CWAITACK?IIC
  +--> ?PR?I2CSTOP?IIC

?PR?ULTRA?MAIN                        -----    -----      -----    -----      -----    -----
  +--> ?PR?SEND_WAVE?MAIN

?PR?SEND_WAVE?MAIN                    -----    -----      -----    -----      00C9H    0002H
  +--> ?PR?DELAY15US?MAIN

?PR?DELAY15US?MAIN                    -----    -----      0008H    0001H      -----    -----

?PR?_AD_R?IIC                         -----    -----      -----    -----      -----    -----
  +--> ?PR?I2CSTART?IIC
  +--> ?PR?I2CWAITACK?IIC
  +--> ?PR?I2CSTOP?IIC



SYMBOL TABLE OF MODULE:  .\Objects\test (MAIN)

  VALUE           TYPE          NAME
  ----------------------------------

  -------         MODULE        MAIN
  C:0000H         SYMBOL        _ICE_DUMMY_
  X:0000H         PUBLIC        pwm_duty
BL51 BANKED LINKER/LOCATER V6.22.2.0                                                  04/04/2025  17:43:52  PAGE 5


  X:0002H         PUBLIC        led_tt
  D:0080H         PUBLIC        P0
  B:0020H.0       PUBLIC        key9_flag
  D:0090H         PUBLIC        P1
  X:0004H         PUBLIC        temp_tt
  D:00A0H         PUBLIC        P2
  D:00B0H         PUBLIC        P3
  X:0006H         PUBLIC        collect_temp
  D:00C0H         PUBLIC        P4
  X:0038H         PUBLIC        humidity_save
  D:00C8H         PUBLIC        P5
  D:00E8H         PUBLIC        P6
  B:00A8H.7       PUBLIC        EA
  D:00F8H         PUBLIC        P7
  X:003AH         PUBLIC        show_tt
  B:00B0H.4       PUBLIC        pwm_in
  D:00A8H         PUBLIC        IE
  X:003BH         PUBLIC        humidity_ave
  X:003DH         PUBLIC        key_tt
  X:003EH         PUBLIC        collect_hum
  D:00B8H         PUBLIC        IP
  X:0070H         PUBLIC        humidity_max
  X:0072H         PUBLIC        AD_last
  C:1811H         PUBLIC        key_r
  X:0074H         PUBLIC        pwm_in_freq
  X:0076H         PUBLIC        pwm_tt
  C:1670H         PUBLIC        _key_w
  B:0020H.1       PUBLIC        AD_ref
  D:00D8H         PUBLIC        CCON
  C:093CH         PUBLIC        main
  X:0078H         PUBLIC        AD_val
  B:0090H.1       PUBLIC        RX
  C:1594H         PUBLIC        ultra
  C:1943H         PUBLIC        Timer0_Init
  B:0090H.0       PUBLIC        TX
  C:1981H         PUBLIC        Timer2_Init
  C:1248H         PUBLIC        tast_clock
  X:007AH         PUBLIC        pwm_h_save
  X:007CH         PUBLIC        pwm_freq_tt
  B:00B0H.0       PUBLIC        P30
  C:1313H         PUBLIC        Timer0
  X:007EH         PUBLIC        collect_tt
  X:0080H         PUBLIC        open
  X:0081H         PUBLIC        pwm_l_save
  B:00B0H.1       PUBLIC        P31
  D:0098H         PUBLIC        SCON
  B:00B0H.2       PUBLIC        P32
  D:0089H         PUBLIC        TMOD
  D:0088H         PUBLIC        TCON
  C:14BDH         PUBLIC        Timer2
  B:00C0H.2       PUBLIC        P42
  B:00B0H.3       PUBLIC        P33
  X:0083H         PUBLIC        pwm_in_duty
  X:0085H         PUBLIC        touch_time
  B:00C0H.4       PUBLIC        P44
  X:0087H         PUBLIC        lcm
  X:0089H         PUBLIC        temp_para
BL51 BANKED LINKER/LOCATER V6.22.2.0                                                  04/04/2025  17:43:52  PAGE 6


  D:00AFH         PUBLIC        IE2
  D:008EH         PUBLIC        AUXR
  C:1993H         PUBLIC        Delay15us
  C:1719H         PUBLIC        send_wave
  B:0020H.2       PUBLIC        key_flag
  X:008BH         PUBLIC        pwm_duty_tt
  B:00A8H.1       PUBLIC        ET0
  X:008DH         PUBLIC        temp_save
  B:0020H.3       PUBLIC        ultra_ref
  B:0088H.5       PUBLIC        TF0
  B:0088H.7       PUBLIC        TF1
  D:008CH         PUBLIC        TH0
  D:008DH         PUBLIC        TH1
  X:008FH         PUBLIC        AD_tt
  D:00D6H         PUBLIC        T2H
  X:0091H         PUBLIC        lcm_time
  B:0020H.4       PUBLIC        time_ref
  D:008AH         PUBLIC        TL0
  C:1748H         PUBLIC        all_init
  X:0093H         PUBLIC        num
  D:008BH         PUBLIC        TL1
  C:1020H         PUBLIC        key_scan
  B:0020H.5       PUBLIC        pwm_flag
  D:00D7H         PUBLIC        T2L
  C:1835H         PUBLIC        _delay_ms
  C:0C86H         PUBLIC        tast_led
  B:0020H.6       PUBLIC        led_ref
  X:0094H         PUBLIC        show_save
  X:0095H         PUBLIC        temp_ave
  X:0097H         PUBLIC        pwm_in_h
  B:0088H.4       PUBLIC        TR0
  B:0020H.7       PUBLIC        temp_ref
  X:0099H         PUBLIC        led_bit
  B:0088H.6       PUBLIC        TR1
  X:009AH         PUBLIC        pwm_in_l
  X:009CH         PUBLIC        act_bit
  X:009DH         PUBLIC        key_time
  X:009FH         PUBLIC        temp_val
  X:00A3H         PUBLIC        seg_buf
  X:00B3H         PUBLIC        temp_max
  C:0562H         PUBLIC        tast_show
  X:00B5H         PUBLIC        pwm_count
  B:0021H.0       PUBLIC        show_ref
  X:00B7H         PUBLIC        pwm_freq
  B:0021H.1       PUBLIC        led4_flag
  B:0021H.2       PUBLIC        collect_flag
  X:00B9H         PUBLIC        showstate
  C:0ECCH         PUBLIC        tast_key
  X:00BAH         PUBLIC        key_val
  X:00BBH         PUBLIC        keystate
  X:00BCH         PUBLIC        humidity
  C:16ACH         PUBLIC        seg_num
  B:0021H.3       PUBLIC        pwm_ref
  X:00BDH         PUBLIC        ultra_tt
  B:0021H.4       PUBLIC        humidity_para
  X:00BFH         PUBLIC        time_tt
  D:00D0H         PUBLIC        PSW
BL51 BANKED LINKER/LOCATER V6.22.2.0                                                  04/04/2025  17:43:52  PAGE 7


  X:00C1H         PUBLIC        time_collect
  -------         PROC          TAST_CLOCK
  C:1248H         LINE#         6
  C:1248H         LINE#         7
  C:1248H         LINE#         8
  C:1256H         LINE#         9
  C:1263H         LINE#         11
  C:127DH         LINE#         12
  C:1299H         LINE#         13
  C:12B5H         LINE#         14
  C:12D1H         LINE#         15
  C:12EBH         LINE#         16
  C:12EEH         LINE#         17
  C:12EEH         LINE#         18
  C:1312H         LINE#         19
  C:1312H         LINE#         20
  -------         ENDPROC       TAST_CLOCK
  -------         PROC          MAIN
  -------         DO            
  X:00C7H         SYMBOL        i
  -------         ENDDO         
  C:093CH         LINE#         22
  C:093CH         LINE#         23
  C:093CH         LINE#         24
  C:093FH         LINE#         25
  C:0949H         LINE#         26
  C:095CH         LINE#         27
  C:095FH         LINE#         29
  C:0962H         LINE#         30
  C:0968H         LINE#         32
  C:0972H         LINE#         33
  C:097DH         LINE#         34
  C:097DH         LINE#         35
  C:097DH         LINE#         36
  C:0980H         LINE#         37
  C:0980H         LINE#         38
  C:0982H         LINE#         39
  C:0985H         LINE#         40
  C:0985H         LINE#         42
  C:0988H         LINE#         43
  C:0988H         LINE#         44
  C:098AH         LINE#         45
  C:098DH         LINE#         46
  C:098DH         LINE#         47
  C:0990H         LINE#         48
  C:0990H         LINE#         49
  C:0992H         LINE#         50
  C:0995H         LINE#         51
  C:0995H         LINE#         53
  C:0998H         LINE#         54
  C:0998H         LINE#         55
  C:099AH         LINE#         58
  C:09C9H         LINE#         59
  C:09DEH         LINE#         62
  C:09DEH         LINE#         64
  C:09E1H         LINE#         65
  C:09E1H         LINE#         66
BL51 BANKED LINKER/LOCATER V6.22.2.0                                                  04/04/2025  17:43:52  PAGE 8


  C:09E3H         LINE#         67
  C:09F6H         LINE#         68
  C:0A26H         LINE#         69
  C:0A53H         LINE#         70
  C:0A53H         LINE#         72
  C:0A59H         LINE#         73
  C:0A59H         LINE#         75
  C:0A5BH         LINE#         76
  C:0A7CH         LINE#         77
  C:0AA4H         LINE#         78
  C:0AEBH         LINE#         79
  C:0AEDH         LINE#         80
  C:0AEFH         LINE#         81
  C:0AF7H         LINE#         82
  C:0AFDH         LINE#         83
  C:0B03H         LINE#         84
  C:0B03H         LINE#         85
  C:0B11H         LINE#         86
  C:0B3CH         LINE#         87
  C:0B4DH         LINE#         88
  C:0B5CH         LINE#         89
  C:0B6BH         LINE#         90
  C:0B8BH         LINE#         91
  C:0BB1H         LINE#         92
  C:0C10H         LINE#         93
  C:0C3CH         LINE#         94
  C:0C61H         LINE#         95
  C:0C61H         LINE#         96
  C:0C61H         LINE#         97
  C:0C70H         LINE#         98
  C:0C70H         LINE#         100
  C:0C73H         LINE#         101
  C:0C73H         LINE#         102
  C:0C75H         LINE#         103
  C:0C78H         LINE#         104
  C:0C78H         LINE#         106
  C:0C7EH         LINE#         107
  C:0C7EH         LINE#         108
  C:0C80H         LINE#         109
  C:0C83H         LINE#         110
  C:0C83H         LINE#         111
  -------         ENDPROC       MAIN
  -------         PROC          TAST_LED
  C:0C86H         LINE#         114
  C:0C86H         LINE#         115
  C:0C86H         LINE#         116
  C:0CDEH         LINE#         117
  C:0D3EH         LINE#         118
  C:0DA0H         LINE#         120
  C:0DC9H         LINE#         121
  C:0DC9H         LINE#         122
  C:0DE1H         LINE#         123
  C:0E06H         LINE#         124
  C:0E06H         LINE#         126
  C:0E0CH         LINE#         127
  C:0E0CH         LINE#         128
  C:0E2CH         LINE#         129
BL51 BANKED LINKER/LOCATER V6.22.2.0                                                  04/04/2025  17:43:52  PAGE 9


  C:0E3BH         LINE#         130
  C:0E3BH         LINE#         131
  C:0E72H         LINE#         132
  C:0E72H         LINE#         133
  C:0E83H         LINE#         134
  C:0E85H         LINE#         136
  C:0E85H         LINE#         137
  C:0E96H         LINE#         138
  C:0E96H         LINE#         139
  C:0E98H         LINE#         141
  C:0E98H         LINE#         142
  C:0EA9H         LINE#         143
  C:0EA9H         LINE#         144
  C:0EABH         LINE#         146
  C:0EABH         LINE#         147
  C:0ECBH         LINE#         148
  C:0ECBH         LINE#         151
  -------         ENDPROC       TAST_LED
  -------         PROC          TAST_KEY
  -------         DO            
  D:0006H         SYMBOL        j
  -------         ENDDO         
  C:0ECCH         LINE#         154
  C:0ECCH         LINE#         155
  C:0ECCH         LINE#         157
  C:0ED8H         LINE#         158
  C:0ED8H         LINE#         159
  C:0EDEH         LINE#         160
  C:0EDEH         LINE#         161
  C:0EDFH         LINE#         162
  C:0EECH         LINE#         163
  C:0F09H         LINE#         164
  C:0F14H         LINE#         165
  C:0F14H         LINE#         166
  C:0F2CH         LINE#         167
  C:0F2CH         LINE#         168
  C:0F2FH         LINE#         169
  C:0F3CH         LINE#         170
  C:0F4AH         LINE#         171
  C:0F56H         LINE#         173
  C:0F56H         LINE#         174
  C:0F66H         LINE#         175
  C:0F66H         LINE#         176
  C:0F68H         LINE#         177
  C:0F7FH         LINE#         178
  C:0F8DH         LINE#         179
  C:0F8DH         LINE#         180
  C:0F98H         LINE#         181
  C:0F98H         LINE#         182
  C:0FA3H         LINE#         183
  C:0FA3H         LINE#         184
  C:0FA5H         LINE#         185
  C:0FB7H         LINE#         186
  C:0FC5H         LINE#         187
  C:0FC6H         LINE#         188
  C:0FCFH         LINE#         189
  C:0FCFH         LINE#         190
BL51 BANKED LINKER/LOCATER V6.22.2.0                                                  04/04/2025  17:43:52  PAGE 10


  C:0FD1H         LINE#         192
  C:0FD7H         LINE#         193
  C:0FDDH         LINE#         194
  C:0FE3H         LINE#         195
  C:0FE9H         LINE#         196
  C:0FF8H         LINE#         197
  C:0FF8H         LINE#         198
  C:1010H         LINE#         199
  C:1017H         LINE#         200
  C:101FH         LINE#         201
  C:101FH         LINE#         202
  C:101FH         LINE#         203
  C:101FH         LINE#         205
  -------         ENDPROC       TAST_KEY
  -------         PROC          TAST_SHOW
  C:0562H         LINE#         208
  C:0562H         LINE#         209
  C:0562H         LINE#         210
  C:058CH         LINE#         211
  C:058CH         LINE#         212
  C:058CH         LINE#         213
  C:058CH         LINE#         214
  C:05A6H         LINE#         215
  C:05B7H         LINE#         216
  C:05BEH         LINE#         217
  C:05D8H         LINE#         218
  C:05E9H         LINE#         219
  C:05F0H         LINE#         220
  C:05F3H         LINE#         221
  C:05F3H         LINE#         222
  C:05F3H         LINE#         223
  C:05F6H         LINE#         224
  C:05F6H         LINE#         225
  C:05F6H         LINE#         226
  C:05FFH         LINE#         227
  C:0606H         LINE#         228
  C:0616H         LINE#         229
  C:0616H         LINE#         230
  C:0616H         LINE#         231
  C:0619H         LINE#         233
  C:0619H         LINE#         234
  C:0633H         LINE#         235
  C:0644H         LINE#         236
  C:064BH         LINE#         237
  C:0665H         LINE#         238
  C:0688H         LINE#         239
  C:068BH         LINE#         240
  C:068BH         LINE#         241
  C:068BH         LINE#         242
  C:068EH         LINE#         243
  C:068EH         LINE#         244
  C:068EH         LINE#         245
  C:069EH         LINE#         246
  C:06AEH         LINE#         247
  C:06AEH         LINE#         248
  C:06B8H         LINE#         249
  C:06BBH         LINE#         251
BL51 BANKED LINKER/LOCATER V6.22.2.0                                                  04/04/2025  17:43:52  PAGE 11


  C:06BBH         LINE#         252
  C:06D5H         LINE#         253
  C:06E6H         LINE#         254
  C:06EDH         LINE#         255
  C:0707H         LINE#         256
  C:072AH         LINE#         257
  C:073CH         LINE#         258
  C:073CH         LINE#         259
  C:073CH         LINE#         260
  C:073FH         LINE#         261
  C:073FH         LINE#         262
  C:073FH         LINE#         263
  C:0748H         LINE#         264
  C:0768H         LINE#         265
  C:0779H         LINE#         266
  C:0789H         LINE#         267
  C:0789H         LINE#         268
  C:07ADH         LINE#         269
  C:07AEH         LINE#         271
  C:07AEH         LINE#         272
  C:07C8H         LINE#         273
  C:07D9H         LINE#         274
  C:07E0H         LINE#         275
  C:07FAH         LINE#         276
  C:0806H         LINE#         277
  C:0806H         LINE#         278
  C:0806H         LINE#         279
  C:0808H         LINE#         280
  C:0808H         LINE#         281
  C:0808H         LINE#         282
  C:0811H         LINE#         283
  C:0818H         LINE#         284
  C:081FH         LINE#         285
  C:0826H         LINE#         286
  C:082DH         LINE#         287
  C:0834H         LINE#         288
  C:084EH         LINE#         289
  C:085FH         LINE#         290
  C:085FH         LINE#         291
  C:0860H         LINE#         292
  C:0860H         LINE#         293
  C:0860H         LINE#         294
  C:0869H         LINE#         295
  C:0870H         LINE#         296
  C:0877H         LINE#         297
  C:0880H         LINE#         299
  C:0883H         LINE#         300
  C:08A3H         LINE#         301
  C:08B0H         LINE#         302
  C:08C9H         LINE#         303
  C:08D6H         LINE#         305
  C:08D7H         LINE#         307
  C:08F8H         LINE#         308
  C:092BH         LINE#         309
  C:0934H         LINE#         310
  C:093BH         LINE#         311
  C:093BH         LINE#         312
BL51 BANKED LINKER/LOCATER V6.22.2.0                                                  04/04/2025  17:43:52  PAGE 12


  C:093BH         LINE#         313
  C:093BH         LINE#         314
  C:093BH         LINE#         315
  -------         ENDPROC       TAST_SHOW
  -------         PROC          TIMER2
  C:14BDH         LINE#         318
  C:14CAH         LINE#         324
  C:14CDH         LINE#         325
  C:14CDH         LINE#         326
  C:14DBH         LINE#         327
  C:14DEH         LINE#         328
  C:14DEH         LINE#         329
  C:14EDH         LINE#         330
  C:14F4H         LINE#         331
  C:14F6H         LINE#         332
  C:14F6H         LINE#         333
  C:14F6H         LINE#         334
  C:14F9H         LINE#         335
  C:14F9H         LINE#         336
  C:1507H         LINE#         337
  C:150AH         LINE#         338
  C:150AH         LINE#         339
  C:1519H         LINE#         340
  C:1520H         LINE#         341
  C:1522H         LINE#         342
  C:1522H         LINE#         343
  C:1522H         LINE#         344
  -------         ENDPROC       TIMER2
  -------         PROC          TIMER2_INIT
  C:1981H         LINE#         346
  C:1981H         LINE#         347
  C:1981H         LINE#         348
  C:1984H         LINE#         349
  C:1987H         LINE#         350
  C:198AH         LINE#         351
  C:198DH         LINE#         352
  C:198FH         LINE#         353
  C:1992H         LINE#         354
  -------         ENDPROC       TIMER2_INIT
  -------         PROC          ULTRA
  C:1594H         LINE#         357
  C:1594H         LINE#         358
  C:1594H         LINE#         359
  C:1597H         LINE#         360
  C:1599H         LINE#         361
  C:159FH         LINE#         362
  C:15A1H         LINE#         363
  C:15A4H         LINE#         364
  C:15A4H         LINE#         365
  C:15A6H         LINE#         366
  C:15AFH         LINE#         367
  C:15B1H         LINE#         368
  C:15B4H         LINE#         369
  C:15B4H         LINE#         370
  C:15B6H         LINE#         371
  C:15C0H         LINE#         372
  C:15CBH         LINE#         373
BL51 BANKED LINKER/LOCATER V6.22.2.0                                                  04/04/2025  17:43:52  PAGE 13


  C:15EDH         LINE#         374
  C:15EDH         LINE#         375
  C:15F2H         LINE#         376
  -------         ENDPROC       ULTRA
  -------         PROC          SEND_WAVE
  -------         DO            
  X:00C9H         SYMBOL        i
  -------         ENDDO         
  C:1719H         LINE#         377
  C:1719H         LINE#         378
  C:1719H         LINE#         380
  C:1720H         LINE#         381
  C:1720H         LINE#         382
  C:1725H         LINE#         383
  C:172AH         LINE#         384
  C:1747H         LINE#         385
  -------         ENDPROC       SEND_WAVE
  -------         PROC          DELAY15US
  -------         DO            
  D:0008H         SYMBOL        i
  -------         ENDDO         
  C:1993H         LINE#         387
  C:1993H         LINE#         388
  C:1993H         LINE#         391
  C:1994H         LINE#         392
  C:1995H         LINE#         393
  C:1998H         LINE#         394
  C:199BH         LINE#         395
  -------         ENDPROC       DELAY15US
  -------         PROC          TIMER0
  C:1313H         LINE#         398
  C:1330H         LINE#         400
  C:1333H         LINE#         401
  C:1339H         LINE#         402
  C:133CH         LINE#         404
  C:136CH         LINE#         405
  C:136FH         LINE#         406
  C:1372H         LINE#         408
  C:137FH         LINE#         409
  C:1385H         LINE#         410
  C:1388H         LINE#         411
  C:1393H         LINE#         413
  C:1396H         LINE#         414
  -------         ENDPROC       TIMER0
  -------         PROC          TIMER0_INIT
  C:1943H         LINE#         416
  C:1943H         LINE#         417
  C:1943H         LINE#         418
  C:1946H         LINE#         419
  C:1949H         LINE#         420
  C:194CH         LINE#         421
  C:194FH         LINE#         422
  C:1951H         LINE#         423
  C:1953H         LINE#         424
  C:1955H         LINE#         425
  C:1957H         LINE#         426
  -------         ENDPROC       TIMER0_INIT
BL51 BANKED LINKER/LOCATER V6.22.2.0                                                  04/04/2025  17:43:52  PAGE 14


  -------         PROC          KEY_SCAN
  -------         DO            
  D:0007H         SYMBOL        key
  X:00C5H         SYMBOL        key1
  X:00C6H         SYMBOL        key2
  -------         ENDDO         
  C:1020H         LINE#         430
  C:1020H         LINE#         431
  C:1020H         LINE#         433
  C:1034H         LINE#         434
  C:1034H         LINE#         435
  C:1034H         LINE#         436
  C:1034H         LINE#         437
  C:1039H         LINE#         438
  C:104CH         LINE#         439
  C:104CH         LINE#         440
  C:104DH         LINE#         441
  C:104DH         LINE#         442
  C:104DH         LINE#         443
  C:1052H         LINE#         444
  C:1066H         LINE#         445
  C:106BH         LINE#         446
  C:107FH         LINE#         447
  C:108CH         LINE#         448
  C:1092H         LINE#         449
  C:1092H         LINE#         450
  C:10B2H         LINE#         451
  C:10B2H         LINE#         452
  C:10BAH         LINE#         453
  C:10C2H         LINE#         454
  C:10CAH         LINE#         455
  C:10D2H         LINE#         456
  C:10DAH         LINE#         457
  C:10E2H         LINE#         458
  C:10EAH         LINE#         459
  C:10F0H         LINE#         460
  C:10F0H         LINE#         461
  C:10F6H         LINE#         462
  C:10F6H         LINE#         463
  C:10F6H         LINE#         464
  C:10F7H         LINE#         465
  C:10F7H         LINE#         466
  C:10F7H         LINE#         467
  C:10FCH         LINE#         468
  C:1106H         LINE#         469
  C:1106H         LINE#         470
  C:110EH         LINE#         471
  C:110EH         LINE#         472
  C:111CH         LINE#         473
  C:111CH         LINE#         474
  C:111DH         LINE#         476
  C:111DH         LINE#         477
  C:112CH         LINE#         478
  C:112CH         LINE#         479
  C:1132H         LINE#         480
  C:1134H         LINE#         481
  C:1134H         LINE#         482
BL51 BANKED LINKER/LOCATER V6.22.2.0                                                  04/04/2025  17:43:52  PAGE 15


  C:1136H         LINE#         483
  C:113BH         LINE#         484
  C:113BH         LINE#         485
  C:113BH         LINE#         486
  C:113BH         LINE#         487
  C:113BH         LINE#         488
  -------         ENDPROC       KEY_SCAN
  -------         PROC          _KEY_W
  D:0007H         SYMBOL        val
  -------         DO            
  D:0007H         SYMBOL        value
  -------         ENDDO         
  C:1670H         LINE#         490
  C:1670H         LINE#         491
  C:1670H         LINE#         492
  C:1670H         LINE#         493
  C:1694H         LINE#         494
  C:16ABH         LINE#         495
  -------         ENDPROC       _KEY_W
  -------         PROC          KEY_R
  -------         DO            
  D:0007H         SYMBOL        val
  D:0007H         SYMBOL        VAL_P3
  D:0006H         SYMBOL        VAL_P44
  D:0005H         SYMBOL        VAL_P42
  -------         ENDDO         
  C:1811H         LINE#         496
  C:1811H         LINE#         497
  C:1811H         LINE#         498
  C:1812H         LINE#         499
  C:181DH         LINE#         500
  C:1834H         LINE#         501
  C:1834H         LINE#         502
  -------         ENDPROC       KEY_R
  -------         PROC          ALL_INIT
  C:1748H         LINE#         504
  C:1748H         LINE#         505
  C:1748H         LINE#         506
  C:174BH         LINE#         507
  C:1751H         LINE#         508
  C:1754H         LINE#         510
  C:1757H         LINE#         511
  C:175AH         LINE#         512
  C:175DH         LINE#         514
  C:1760H         LINE#         515
  C:1766H         LINE#         516
  C:1769H         LINE#         518
  C:176BH         LINE#         519
  C:1771H         LINE#         520
  C:1774H         LINE#         522
  -------         ENDPROC       ALL_INIT
  -------         PROC          _DELAY_MS
  D:0006H         SYMBOL        ms
  -------         DO            
  D:0004H         SYMBOL        i
  D:0002H         SYMBOL        j
  -------         ENDDO         
BL51 BANKED LINKER/LOCATER V6.22.2.0                                                  04/04/2025  17:43:52  PAGE 16


  C:1835H         LINE#         524
  C:1835H         LINE#         525
  C:1835H         LINE#         527
  C:183FH         LINE#         528
  C:1854H         LINE#         529
  -------         ENDPROC       _DELAY_MS
  -------         ENDMOD        MAIN

  -------         MODULE        ONEWIRE
  C:0000H         SYMBOL        _ICE_DUMMY_
  D:0090H         PUBLIC        P1
  D:00B0H         PUBLIC        P3
  C:179DH         PUBLIC        Read_DS18B20
  B:00A8H.7       PUBLIC        EA
  D:00A8H         PUBLIC        IE
  C:1859H         PUBLIC        _Delay_OneWire
  C:1775H         PUBLIC        _Write_DS18B20
  B:0090H.4       PUBLIC        DQ
  D:00B8H         PUBLIC        IP
  C:17C4H         PUBLIC        init_ds18b20
  D:0098H         PUBLIC        SCON
  D:0088H         PUBLIC        TCON
  C:143DH         PUBLIC        temp_get
  D:00C8H         PUBLIC        T2CON
  D:00D0H         PUBLIC        PSW
  C:1855H         SYMBOL        L?0020
  -------         PROC          L?0019
  -------         ENDPROC       L?0019
  C:1855H         SYMBOL        L?0020
  -------         PROC          _DELAY_ONEWIRE
  D:0006H         SYMBOL        t
  -------         DO            
  D:0005H         SYMBOL        i
  -------         ENDDO         
  C:1859H         LINE#         13
  C:1859H         LINE#         14
  C:1859H         LINE#         16
  C:1863H         LINE#         17
  C:1872H         LINE#         18
  C:1872H         LINE#         19
  -------         ENDPROC       _DELAY_ONEWIRE
  -------         PROC          _WRITE_DS18B20
  D:0001H         SYMBOL        dat
  -------         DO            
  D:0003H         SYMBOL        i
  -------         ENDDO         
  C:1775H         LINE#         22
  C:1777H         LINE#         23
  C:1777H         LINE#         25
  C:1779H         LINE#         26
  C:1785H         LINE#         27
  C:1785H         LINE#         28
  C:1787H         LINE#         29
  C:178BH         LINE#         30
  C:178EH         LINE#         31
  C:1790H         LINE#         32
  C:1794H         LINE#         33
BL51 BANKED LINKER/LOCATER V6.22.2.0                                                  04/04/2025  17:43:52  PAGE 17


  C:1797H         LINE#         34
  C:179AH         LINE#         35
  C:179CH         LINE#         36
  -------         ENDPROC       _WRITE_DS18B20
  -------         PROC          READ_DS18B20
  -------         DO            
  D:0003H         SYMBOL        i
  D:0004H         SYMBOL        dat
  -------         ENDDO         
  C:179DH         LINE#         39
  C:179DH         LINE#         40
  C:179DH         LINE#         43
  C:179FH         LINE#         44
  C:17ABH         LINE#         45
  C:17ABH         LINE#         46
  C:17ADH         LINE#         47
  C:17B1H         LINE#         48
  C:17B3H         LINE#         49
  C:17B6H         LINE#         50
  C:17B6H         LINE#         51
  C:17B9H         LINE#         52
  C:17B9H         LINE#         53
  C:17BCH         LINE#         54
  C:17BFH         LINE#         55
  C:17C1H         LINE#         56
  C:17C3H         LINE#         58
  -------         ENDPROC       READ_DS18B20
  -------         PROC          INIT_DS18B20
  -------         DO            
  B:0021H.5       SYMBOL        initflag
  -------         ENDDO         
  C:17C4H         LINE#         61
  C:17C4H         LINE#         62
  C:17C4H         LINE#         63
  C:17C6H         LINE#         65
  C:17C8H         LINE#         66
  C:17CFH         LINE#         67
  C:17D1H         LINE#         68
  C:17D8H         LINE#         69
  C:17DAH         LINE#         70
  C:17E1H         LINE#         71
  C:17E5H         LINE#         72
  C:17E8H         LINE#         74
  C:17EAH         LINE#         75
  -------         ENDPROC       INIT_DS18B20
  -------         PROC          TEMP_GET
  -------         DO            
  D:0007H         SYMBOL        high
  X:00C9H         SYMBOL        low
  X:00CAH         SYMBOL        temp
  -------         ENDDO         
  C:143DH         LINE#         77
  C:143DH         LINE#         78
  C:143DH         LINE#         81
  C:1440H         LINE#         82
  C:1445H         LINE#         83
  C:144AH         LINE#         84
BL51 BANKED LINKER/LOCATER V6.22.2.0                                                  04/04/2025  17:43:52  PAGE 18


  C:1451H         LINE#         86
  C:1454H         LINE#         87
  C:1459H         LINE#         88
  C:145EH         LINE#         90
  C:1466H         LINE#         91
  C:1469H         LINE#         93
  C:1475H         LINE#         94
  C:148EH         LINE#         95
  C:14AEH         LINE#         97
  C:14BCH         LINE#         98
  -------         ENDPROC       TEMP_GET
  -------         ENDMOD        ONEWIRE

  -------         MODULE        IIC
  C:0000H         SYMBOL        _ICE_DUMMY_
  D:0090H         PUBLIC        P1
  D:00A0H         PUBLIC        P2
  D:00B0H         PUBLIC        P3
  D:00A8H         PUBLIC        IE
  C:18CCH         SYMBOL        _I2C_Delay
  D:00B8H         PUBLIC        IP
  C:17EBH         PUBLIC        I2CReceiveByte
  D:0098H         PUBLIC        SCON
  D:0088H         PUBLIC        TCON
  C:192BH         PUBLIC        _AD_R
  B:00A0H.1       PUBLIC        sda
  C:1958H         PUBLIC        _AD_W
  B:00A0H.0       PUBLIC        scl
  C:1913H         PUBLIC        _AT_R
  C:18E2H         PUBLIC        _AT_W
  C:0052H         PUBLIC        I2CStart
  C:18FBH         PUBLIC        _I2CSendAck
  C:16E4H         PUBLIC        _I2CSendByte
  C:187EH         PUBLIC        I2CWaitAck
  C:18A0H         PUBLIC        I2CStop
  D:00C8H         PUBLIC        T2CON
  D:00D0H         PUBLIC        PSW
  C:18C8H         SYMBOL        L?0027
  -------         PROC          L?0026
  -------         ENDPROC       L?0026
  C:18C8H         SYMBOL        L?0027
  -------         PROC          _I2C_DELAY
  D:0007H         SYMBOL        n
  C:18CCH         LINE#         12
  C:18CCH         LINE#         13
  C:18CCH         LINE#         15
  C:18CCH         LINE#         16
  C:18D1H         LINE#         17
  C:18D6H         LINE#         18
  C:18DBH         LINE#         19
  C:18DBH         LINE#         20
  C:18E1H         LINE#         21
  -------         ENDPROC       _I2C_DELAY
  -------         PROC          I2CSTART
  C:0052H         LINE#         24
  C:0052H         LINE#         25
  C:0052H         LINE#         26
BL51 BANKED LINKER/LOCATER V6.22.2.0                                                  04/04/2025  17:43:52  PAGE 19


  C:0054H         LINE#         27
  C:0054H         LINE#         28
  C:0057H         LINE#         29
  C:0059H         LINE#         30
  C:005EH         LINE#         31
  C:0060H         LINE#         32
  -------         ENDPROC       I2CSTART
  -------         PROC          L?0028
  -------         ENDPROC       L?0028
  -------         PROC          I2CSTOP
  C:18A0H         LINE#         35
  C:18A0H         LINE#         36
  C:18A0H         LINE#         37
  C:18A2H         LINE#         38
  C:18A2H         LINE#         39
  C:18A5H         LINE#         40
  C:18A7H         LINE#         41
  -------         ENDPROC       I2CSTOP
  -------         PROC          _I2CSENDBYTE
  D:0005H         SYMBOL        byt
  -------         DO            
  D:0004H         SYMBOL        i
  -------         ENDDO         
  C:16E4H         LINE#         45
  C:16E6H         LINE#         46
  C:16E6H         LINE#         49
  C:16F2H         LINE#         50
  C:16F4H         LINE#         51
  C:16F9H         LINE#         52
  C:16FDH         LINE#         53
  C:16FFH         LINE#         54
  C:1701H         LINE#         55
  C:1701H         LINE#         56
  C:1703H         LINE#         57
  C:1703H         LINE#         58
  C:1708H         LINE#         59
  C:170AH         LINE#         60
  C:170EH         LINE#         61
  C:1713H         LINE#         62
  C:1716H         LINE#         64
  C:1718H         LINE#         65
  -------         ENDPROC       _I2CSENDBYTE
  -------         PROC          I2CRECEIVEBYTE
  -------         DO            
  D:0005H         SYMBOL        da
  D:0004H         SYMBOL        i
  -------         ENDDO         
  C:17EBH         LINE#         68
  C:17EBH         LINE#         69
  C:17EBH         LINE#         72
  C:17F7H         LINE#         73
  C:17F7H         LINE#         74
  C:17FAH         LINE#         75
  C:17FEH         LINE#         76
  C:1801H         LINE#         77
  C:1804H         LINE#         78
  C:1806H         LINE#         79
BL51 BANKED LINKER/LOCATER V6.22.2.0                                                  04/04/2025  17:43:52  PAGE 20


  C:180BH         LINE#         80
  C:180EH         LINE#         81
  C:1810H         LINE#         82
  -------         ENDPROC       I2CRECEIVEBYTE
  C:1873H         SYMBOL        L?0025
  -------         PROC          L?0024
  -------         ENDPROC       L?0024
  C:1873H         SYMBOL        L?0025
  -------         PROC          I2CWAITACK
  -------         DO            
  D:0005H         SYMBOL        ackbit
  -------         ENDDO         
  C:187EH         LINE#         85
  C:187EH         LINE#         86
  C:187EH         LINE#         89
  C:187EH         LINE#         90
  C:1881H         LINE#         91
  C:1886H         LINE#         92
  C:1888H         LINE#         93
  C:188DH         LINE#         95
  C:188FH         LINE#         96
  -------         ENDPROC       I2CWAITACK
  -------         PROC          _I2CSENDACK
  D:0007H         SYMBOL        ackbit
  C:18FBH         LINE#         99
  C:18FBH         LINE#         100
  C:18FBH         LINE#         101
  C:18FDH         LINE#         102
  C:1902H         LINE#         103
  C:1907H         LINE#         104
  C:1907H         LINE#         105
  C:190AH         LINE#         106
  C:190CH         LINE#         107
  C:190EH         LINE#         108
  -------         ENDPROC       _I2CSENDACK
  -------         PROC          _AT_W
  D:0001H         SYMBOL        add
  D:0002H         SYMBOL        dat
  C:18E2H         LINE#         112
  C:18E8H         LINE#         113
  C:18E8H         LINE#         114
  C:18EBH         LINE#         115
  C:18F0H         LINE#         116
  C:18F3H         LINE#         117
  C:18F5H         LINE#         118
  C:18F5H         LINE#         119
  C:18F5H         LINE#         120
  C:18F8H         LINE#         121
  -------         ENDPROC       _AT_W
  -------         PROC          _AT_R
  D:0003H         SYMBOL        add
  -------         DO            
  D:0005H         SYMBOL        dat
  -------         ENDDO         
  C:1913H         LINE#         123
  C:1915H         LINE#         124
  C:1915H         LINE#         126
BL51 BANKED LINKER/LOCATER V6.22.2.0                                                  04/04/2025  17:43:52  PAGE 21


  C:1918H         LINE#         127
  C:191AH         LINE#         128
  C:191AH         LINE#         129
  C:191AH         LINE#         130
  C:191DH         LINE#         131
  C:1920H         LINE#         133
  C:1923H         LINE#         134
  C:1925H         LINE#         135
  C:1925H         LINE#         136
  C:1925H         LINE#         137
  C:1925H         LINE#         138
  C:1928H         LINE#         140
  C:192AH         LINE#         141
  -------         ENDPROC       _AT_R
  -------         PROC          _AD_W
  D:0003H         SYMBOL        dat
  C:1958H         LINE#         143
  C:195AH         LINE#         144
  C:195AH         LINE#         145
  C:195DH         LINE#         146
  C:1962H         LINE#         147
  C:1965H         LINE#         148
  C:1967H         LINE#         149
  C:1967H         LINE#         150
  C:1967H         LINE#         151
  C:196AH         LINE#         152
  -------         ENDPROC       _AD_W
  -------         PROC          _AD_R
  D:0003H         SYMBOL        add
  -------         DO            
  D:0005H         SYMBOL        dat
  -------         ENDDO         
  C:192BH         LINE#         155
  C:192DH         LINE#         156
  C:192DH         LINE#         159
  C:1930H         LINE#         160
  C:1932H         LINE#         161
  C:1932H         LINE#         162
  C:1932H         LINE#         163
  C:1935H         LINE#         164
  C:1938H         LINE#         166
  C:193BH         LINE#         167
  C:193DH         LINE#         168
  C:193DH         LINE#         169
  C:193DH         LINE#         170
  C:193DH         LINE#         171
  C:1940H         LINE#         173
  C:1942H         LINE#         175
  -------         ENDPROC       _AD_R
  -------         ENDMOD        IIC

  -------         MODULE        DS1302
  C:0000H         SYMBOL        _ICE_DUMMY_
  D:0090H         PUBLIC        P1
  D:00A0H         PUBLIC        P2
  D:00B0H         PUBLIC        P3
  D:00A8H         PUBLIC        IE
BL51 BANKED LINKER/LOCATER V6.22.2.0                                                  04/04/2025  17:43:52  PAGE 22


  D:00B8H         PUBLIC        IP
  D:0098H         PUBLIC        SCON
  D:0088H         PUBLIC        TCON
  C:152DH         PUBLIC        time_init
  C:15F3H         PUBLIC        time_get
  C:1633H         PUBLIC        _Read_Ds1302_Byte
  B:00A0H.3       PUBLIC        SDA
  B:0090H.7       PUBLIC        SCK
  C:196DH         PUBLIC        _Write_Ds1302_Byte
  D:00C8H         PUBLIC        T2CON
  X:00CEH         PUBLIC        time_ds
  C:18ACH         PUBLIC        _Write_Ds1302
  B:0090H.3       PUBLIC        RST
  D:00D0H         PUBLIC        PSW
  -------         PROC          _WRITE_DS1302
  D:0007H         SYMBOL        temp
  -------         DO            
  D:0006H         SYMBOL        i
  -------         ENDDO         
  C:18ACH         LINE#         15
  C:18ACH         LINE#         16
  C:18ACH         LINE#         18
  C:18B8H         LINE#         19
  C:18B8H         LINE#         20
  C:18BAH         LINE#         21
  C:18BEH         LINE#         22
  C:18C2H         LINE#         23
  C:18C4H         LINE#         24
  C:18C7H         LINE#         25
  -------         ENDPROC       _WRITE_DS1302
  -------         PROC          _WRITE_DS1302_BYTE
  D:0007H         SYMBOL        address
  D:0005H         SYMBOL        dat
  C:196DH         LINE#         28
  C:196DH         LINE#         29
  C:196DH         LINE#         30
  C:1970H         LINE#         31
  C:1973H         LINE#         32
  C:1976H         LINE#         33
  C:1979H         LINE#         34
  C:197EH         LINE#         35
  C:1980H         LINE#         36
  -------         ENDPROC       _WRITE_DS1302_BYTE
  -------         PROC          _READ_DS1302_BYTE
  D:0007H         SYMBOL        address
  -------         DO            
  D:0007H         SYMBOL        i
  D:0005H         SYMBOL        temp
  -------         ENDDO         
  C:1633H         LINE#         39
  C:1633H         LINE#         40
  C:1633H         LINE#         41
  C:1635H         LINE#         42
  C:1638H         LINE#         43
  C:163BH         LINE#         44
  C:163EH         LINE#         45
  C:1641H         LINE#         46
BL51 BANKED LINKER/LOCATER V6.22.2.0                                                  04/04/2025  17:43:52  PAGE 23


  C:164DH         LINE#         47
  C:164DH         LINE#         48
  C:164FH         LINE#         49
  C:1653H         LINE#         50
  C:1656H         LINE#         51
  C:1659H         LINE#         52
  C:165BH         LINE#         53
  C:165EH         LINE#         54
  C:1661H         LINE#         55
  C:1664H         LINE#         56
  C:1667H         LINE#         57
  C:166AH         LINE#         58
  C:166DH         LINE#         59
  C:166FH         LINE#         60
  -------         ENDPROC       _READ_DS1302_BYTE
  -------         PROC          TIME_INIT
  -------         DO            
  D:0003H         SYMBOL        i
  X:00C9H         SYMBOL        add
  -------         ENDDO         
  C:152DH         LINE#         62
  C:152DH         LINE#         63
  C:152DH         LINE#         65
  C:1533H         LINE#         66
  C:153AH         LINE#         67
  C:1546H         LINE#         68
  C:1546H         LINE#         69
  C:1586H         LINE#         70
  C:158AH         LINE#         71
  C:158DH         LINE#         72
  -------         ENDPROC       TIME_INIT
  -------         PROC          TIME_GET
  -------         DO            
  D:0004H         SYMBOL        i
  D:0001H         SYMBOL        add
  D:0005H         SYMBOL        dat
  -------         ENDDO         
  C:15F3H         LINE#         75
  C:15F3H         LINE#         76
  C:15F3H         LINE#         78
  C:15F5H         LINE#         79
  C:1601H         LINE#         80
  C:1601H         LINE#         81
  C:1608H         LINE#         82
  C:162DH         LINE#         83
  C:162FH         LINE#         84
  C:1632H         LINE#         85
  -------         ENDPROC       TIME_GET
  -------         ENDMOD        DS1302

  -------         MODULE        ?C?FPADD
  C:006DH         PUBLIC        ?C?FPADD
  C:0069H         PUBLIC        ?C?FPSUB
  -------         ENDMOD        ?C?FPADD

  -------         MODULE        ?C?FPMUL
  C:015EH         PUBLIC        ?C?FPMUL
BL51 BANKED LINKER/LOCATER V6.22.2.0                                                  04/04/2025  17:43:52  PAGE 24


  -------         ENDMOD        ?C?FPMUL

  -------         MODULE        ?C?FCAST
  C:026EH         PUBLIC        ?C?FCASTC
  C:0269H         PUBLIC        ?C?FCASTI
  C:0264H         PUBLIC        ?C?FCASTL
  -------         ENDMOD        ?C?FCAST

  -------         MODULE        ?C?CASTF
  C:02A2H         PUBLIC        ?C?CASTF
  -------         ENDMOD        ?C?CASTF

  -------         MODULE        ?C?IMUL
  C:0323H         PUBLIC        ?C?IMUL
  -------         ENDMOD        ?C?IMUL

  -------         MODULE        ?C?UIDIV
  C:0335H         PUBLIC        ?C?UIDIV
  -------         ENDMOD        ?C?UIDIV

  -------         MODULE        ?C?SIDIV
  C:038AH         PUBLIC        ?C?SIDIV
  -------         ENDMOD        ?C?SIDIV

  -------         MODULE        ?C?IILDX
  C:03C0H         PUBLIC        ?C?IILDX
  -------         ENDMOD        ?C?IILDX

  -------         MODULE        ?C?LMUL
  C:03D6H         PUBLIC        ?C?LMUL
  -------         ENDMOD        ?C?LMUL

  -------         MODULE        ?C?ULDIV
  C:0461H         PUBLIC        ?C?ULDIV
  -------         ENDMOD        ?C?ULDIV

  -------         MODULE        ?C?SLDIV
  C:000EH         PUBLIC        ?C?SLDIV
  -------         ENDMOD        ?C?SLDIV

  -------         MODULE        ?C?LNEG
  C:04F3H         PUBLIC        ?C?LNEG
  -------         ENDMOD        ?C?LNEG

  -------         MODULE        ?C?ULCMP
  C:0501H         PUBLIC        ?C?ULCMP
  -------         ENDMOD        ?C?ULCMP

  -------         MODULE        ?C?LSHL
  C:0512H         PUBLIC        ?C?LSHL
  -------         ENDMOD        ?C?LSHL

  -------         MODULE        ?C?LSTXDATA
  C:0525H         PUBLIC        ?C?LSTXDATA
  -------         ENDMOD        ?C?LSTXDATA

  -------         MODULE        ?C?LSTKXDATA
BL51 BANKED LINKER/LOCATER V6.22.2.0                                                  04/04/2025  17:43:52  PAGE 25


  C:0531H         PUBLIC        ?C?LSTKXDATA
  -------         ENDMOD        ?C?LSTKXDATA

*** WARNING L16: UNCALLED SEGMENT, IGNORED FOR OVERLAY PROCESS
    SEGMENT: ?PR?_AD_W?IIC

Program Size: data=11.6 xdata=212 code=6546
LINK/LOCATE RUN COMPLETE.  1 WARNING(S),  0 ERROR(S)
