BL51 BANKED LINKER/LOCATER V6.22.2.0                                                    03/08/2025  15:36:44  PAGE 1


BL51 BANKED LINKER/LOCATER V6.22.2.0, INVOKED BY:
D:\KEIL5-1\C51\BIN\BL51.EXE .\Objects\main.obj, .\Objects\onewire.obj, .\Objects\iic.obj TO .\Objects\Test PRINT (.\List
>> ings\Test.m51) RAMSIZE (256)


MEMORY MODEL: SMALL WITH FLOATING POINT ARITHMETIC


INPUT MODULES INCLUDED:
  .\Objects\main.obj (MAIN)
  .\Objects\onewire.obj (ONEWIRE)
  .\Objects\iic.obj (IIC)
  D:\KEIL5-1\C51\LIB\C51FPS.LIB (?C?FPMUL)
  D:\KEIL5-1\C51\LIB\C51FPS.LIB (?C?FCAST)
  D:\KEIL5-1\C51\LIB\C51FPS.LIB (?C?CASTF)
  D:\KEIL5-1\C51\LIB\C51FPS.LIB (?C?FPGETOPN)
  D:\KEIL5-1\C51\LIB\C51S.LIB (?C_STARTUP)
  D:\KEIL5-1\C51\LIB\C51S.LIB (?C?SCDIV)
  D:\KEIL5-1\C51\LIB\C51S.LIB (?C?UIDIV)
  D:\KEIL5-1\C51\LIB\C51S.LIB (?C?LMUL)
  D:\KEIL5-1\C51\LIB\C51S.LIB (?C?ULDIV)
  D:\KEIL5-1\C51\LIB\C51S.LIB (?C?LNEG)
  D:\KEIL5-1\C51\LIB\C51S.LIB (?C?ULCMP)
  D:\KEIL5-1\C51\LIB\C51S.LIB (?C?LSHL)
  D:\KEIL5-1\C51\LIB\C51S.LIB (?C_INIT)


LINK MAP OF MODULE:  .\Objects\Test (MAIN)


            TYPE    BASE      LENGTH    RELOCATION   SEGMENT NAME
            -----------------------------------------------------

            * * * * * * *   D A T A   M E M O R Y   * * * * * * *
            REG     0000H     0008H     ABSOLUTE     "REG BANK 0"
            DATA    0008H     0004H     UNIT         _DATA_GROUP_
                    000CH     0014H                  *** GAP ***
            BIT     0020H.0   0000H.6   UNIT         ?BI?MAIN
            BIT     0020H.6   0000H.1   UNIT         _BIT_GROUP_
                    0020H.7   0000H.1                *** GAP ***
            DATA    0021H     0032H     UNIT         ?DT?MAIN
            IDATA   0053H     0001H     UNIT         ?STACK

            * * * * * * *   C O D E   M E M O R Y   * * * * * * *
            CODE    0000H     0003H     ABSOLUTE     
            CODE    0003H     0007H     UNIT         ?PR?DELAY14US?MAIN
                    000AH     0001H                  *** GAP ***
            CODE    000BH     0003H     ABSOLUTE     
            CODE    000EH     038BH     UNIT         ?C?LIB_CODE
            CODE    0399H     0208H     UNIT         ?PR?SEG_REFRESH?MAIN
            CODE    05A1H     01CFH     UNIT         ?PR?MAIN?MAIN
            CODE    0770H     010DH     UNIT         ?PR?TASK_KEY?MAIN
            CODE    087DH     0096H     UNIT         ?PR?TIMER0?MAIN
            CODE    0913H     008CH     UNIT         ?C_C51STARTUP
            CODE    099FH     006EH     UNIT         ?PR?TASK_CLOCK?MAIN
            CODE    0A0DH     006BH     UNIT         ?C_INITSEG
            CODE    0A78H     0064H     UNIT         ?PR?TEMP_GET?ONEWIRE
            CODE    0ADCH     005FH     UNIT         ?PR?KEY_SCAN?MAIN
BL51 BANKED LINKER/LOCATER V6.22.2.0                                                  03/08/2025  15:36:44  PAGE 2


            CODE    0B3BH     004DH     UNIT         ?PR?ULTRA_NUM?MAIN
            CODE    0B88H     0035H     UNIT         ?PR?_I2CSENDBYTE?IIC
            CODE    0BBDH     002EH     UNIT         ?CO?MAIN
            CODE    0BEBH     002DH     UNIT         ?PR?ALL_INIT?MAIN
            CODE    0C18H     002AH     UNIT         ?PR?_AD_READ?IIC
            CODE    0C42H     0027H     UNIT         ?PR?_WRITE_DS18B20?ONEWIRE
            CODE    0C69H     0027H     UNIT         ?PR?INIT_DS18B20?ONEWIRE
            CODE    0C90H     0026H     UNIT         ?PR?I2CRECEIVEBYTE?IIC
            CODE    0CB6H     0023H     UNIT         ?PR?READ_DS18B20?ONEWIRE
            CODE    0CD9H     0020H     UNIT         ?PR?_DELAY_MS?MAIN
            CODE    0CF9H     001EH     UNIT         ?PR?_DELAY_ONEWIRE?ONEWIRE
            CODE    0D17H     001DH     UNIT         ?PR?I2CWAITACK?IIC
            CODE    0D34H     001AH     UNIT         ?PR?ULTRA_WAVE?MAIN
            CODE    0D4EH     0018H     UNIT         ?PR?_I2CSENDACK?IIC
            CODE    0D66H     0015H     UNIT         ?PR?TIMER0_INIT?MAIN
            CODE    0D7BH     0015H     UNIT         ?PR?_AD_WRITE?IIC
            CODE    0D90H     000FH     UNIT         ?PR?I2CSTART?IIC
            CODE    0D9FH     000EH     UNIT         ?PR?TIMER1_INIT?MAIN
            CODE    0DADH     000CH     UNIT         ?PR?_I2C_DELAY?IIC
            CODE    0DB9H     000CH     UNIT         ?PR?I2CSTOP?IIC



OVERLAY MAP OF MODULE:   .\Objects\Test (MAIN)


SEGMENT                               BIT_GROUP          DATA_GROUP 
  +--> CALLED SEGMENT              START    LENGTH     START    LENGTH
----------------------------------------------------------------------
?PR?TIMER0?MAIN                    -----    -----      -----    -----
  +--> ?CO?MAIN
  +--> ?PR?TASK_CLOCK?MAIN

?PR?TASK_CLOCK?MAIN                -----    -----      -----    -----
  +--> ?PR?KEY_SCAN?MAIN

*** NEW ROOT ***************************************************

?C_C51STARTUP                      -----    -----      -----    -----
  +--> ?PR?MAIN?MAIN
  +--> ?C_INITSEG

?PR?MAIN?MAIN                      -----    -----      -----    -----
  +--> ?PR?ALL_INIT?MAIN
  +--> ?PR?TEMP_GET?ONEWIRE
  +--> ?PR?_DELAY_MS?MAIN
  +--> ?PR?TIMER0_INIT?MAIN
  +--> ?PR?TIMER1_INIT?MAIN
  +--> ?PR?TASK_KEY?MAIN
  +--> ?PR?SEG_REFRESH?MAIN
  +--> ?PR?_AD_WRITE?IIC
  +--> ?PR?ULTRA_NUM?MAIN

?PR?TEMP_GET?ONEWIRE               -----    -----      0008H    0004H
  +--> ?PR?INIT_DS18B20?ONEWIRE
  +--> ?PR?_WRITE_DS18B20?ONEWIRE
  +--> ?PR?_DELAY_ONEWIRE?ONEWIRE
BL51 BANKED LINKER/LOCATER V6.22.2.0                                                  03/08/2025  15:36:44  PAGE 3


  +--> ?PR?READ_DS18B20?ONEWIRE

?PR?INIT_DS18B20?ONEWIRE           0020H.6  0000H.1    -----    -----
  +--> ?PR?_DELAY_ONEWIRE?ONEWIRE

?PR?_WRITE_DS18B20?ONEWIRE         -----    -----      -----    -----
  +--> ?PR?_DELAY_ONEWIRE?ONEWIRE

?PR?READ_DS18B20?ONEWIRE           -----    -----      -----    -----
  +--> ?PR?_DELAY_ONEWIRE?ONEWIRE

?PR?_AD_WRITE?IIC                  -----    -----      -----    -----
  +--> ?PR?I2CSTART?IIC
  +--> ?PR?_I2CSENDBYTE?IIC
  +--> ?PR?I2CWAITACK?IIC
  +--> ?PR?I2CSTOP?IIC

?PR?I2CSTART?IIC                   -----    -----      -----    -----
  +--> ?PR?_I2C_DELAY?IIC

?PR?_I2CSENDBYTE?IIC               -----    -----      -----    -----
  +--> ?PR?_I2C_DELAY?IIC

?PR?I2CWAITACK?IIC                 -----    -----      -----    -----
  +--> ?PR?_I2CSENDBYTE?IIC
  +--> ?PR?_I2C_DELAY?IIC

?PR?I2CSTOP?IIC                    -----    -----      -----    -----
  +--> ?PR?_I2C_DELAY?IIC

?PR?ULTRA_NUM?MAIN                 -----    -----      -----    -----
  +--> ?PR?ULTRA_WAVE?MAIN

?PR?ULTRA_WAVE?MAIN                -----    -----      -----    -----
  +--> ?PR?DELAY14US?MAIN



SYMBOL TABLE OF MODULE:  .\Objects\Test (MAIN)

  VALUE           TYPE          NAME
  ----------------------------------

  -------         MODULE        MAIN
  C:0000H         SYMBOL        _ICE_DUMMY_
  D:0080H         PUBLIC        P0
  D:0090H         PUBLIC        P1
  D:0021H         PUBLIC        temp_tt
  D:00A0H         PUBLIC        P2
  D:00B0H         PUBLIC        P3
  D:00C0H         PUBLIC        P4
  C:099FH         PUBLIC        Task_clock
  D:00C8H         PUBLIC        P5
  D:0023H         PUBLIC        AD_value
  D:00E8H         PUBLIC        P6
  B:00A8H.7       PUBLIC        EA
  B:0020H.0       PUBLIC        Key_Flag
BL51 BANKED LINKER/LOCATER V6.22.2.0                                                  03/08/2025  15:36:44  PAGE 4


  D:00F8H         PUBLIC        P7
  D:0025H         PUBLIC        Key_Value
  D:0026H         PUBLIC        show_tt
  D:00A8H         PUBLIC        IE
  D:0028H         PUBLIC        temp_minstore
  D:0029H         PUBLIC        temp_maxstore
  D:00B8H         PUBLIC        IP
  D:002AH         PUBLIC        Key_Time
  B:0020H.1       PUBLIC        temp_choose
  B:0020H.2       PUBLIC        AD_ref
  D:00D8H         PUBLIC        CCON
  D:002CH         PUBLIC        LCM_tt
  C:05A1H         PUBLIC        main
  B:0090H.1       PUBLIC        RX
  C:0D66H         PUBLIC        Timer0_Init
  C:0D9FH         PUBLIC        Timer1_Init
  B:0090H.0       PUBLIC        TX
  D:002EH         PUBLIC        KeyState
  C:0BEBH         PUBLIC        All_init
  B:00B0H.0       PUBLIC        P30
  C:087DH         PUBLIC        Timer0
  C:0399H         PUBLIC        SEG_refresh
  B:00B0H.1       PUBLIC        P31
  D:0098H         PUBLIC        SCON
  B:00B0H.2       PUBLIC        P32
  D:0089H         PUBLIC        TMOD
  D:0088H         PUBLIC        TCON
  B:00B0H.3       PUBLIC        P33
  D:002FH         PUBLIC        temp_value
  C:0770H         PUBLIC        Task_key
  C:0003H         PUBLIC        Delay14us
  C:0D34H         PUBLIC        ultra_wave
  D:008EH         PUBLIC        AUXR
  B:00A8H.1       PUBLIC        ET0
  B:0088H.5       PUBLIC        TF0
  B:0088H.7       PUBLIC        TF1
  D:008CH         PUBLIC        TH0
  D:008DH         PUBLIC        TH1
  D:0033H         PUBLIC        LCM_Time
  D:0035H         PUBLIC        AD_tt
  D:008AH         PUBLIC        TL0
  D:0037H         PUBLIC        num
  D:008BH         PUBLIC        TL1
  C:0ADCH         PUBLIC        key_scan
  C:0CD9H         PUBLIC        _delay_ms
  B:0088H.4       PUBLIC        TR0
  B:0020H.3       PUBLIC        temp_ref
  B:0088H.6       PUBLIC        TR1
  B:0020H.4       PUBLIC        LCM_Ref
  D:0039H         PUBLIC        temp_test
  D:003AH         PUBLIC        LCM
  C:0B3BH         PUBLIC        ultra_num
  D:003CH         PUBLIC        temp_min
  D:003DH         PUBLIC        SEG_Buf
  D:004DH         PUBLIC        temp_max
  B:0020H.5       PUBLIC        show_ref
  D:004EH         PUBLIC        SEG_Show
BL51 BANKED LINKER/LOCATER V6.22.2.0                                                  03/08/2025  15:36:44  PAGE 5


  C:0BBDH         PUBLIC        SEG_Num
  D:004FH         PUBLIC        Key_tt
  D:0051H         PUBLIC        LED_buf
  D:0052H         PUBLIC        ACT_buf
  D:00D0H         PUBLIC        PSW
  -------         PROC          TASK_CLOCK
  C:099FH         LINE#         7
  C:099FH         LINE#         8
  C:099FH         LINE#         9
  C:09B4H         LINE#         10
  C:09C8H         LINE#         11
  C:09DCH         LINE#         12
  C:09F4H         LINE#         13
  C:0A0CH         LINE#         14
  -------         ENDPROC       TASK_CLOCK
  -------         PROC          TASK_KEY
  C:0770H         LINE#         15
  C:0770H         LINE#         16
  C:0770H         LINE#         17
  C:0788H         LINE#         18
  C:0788H         LINE#         19
  C:0788H         LINE#         20
  C:0788H         LINE#         21
  C:0791H         LINE#         22
  C:0791H         LINE#         23
  C:0793H         LINE#         24
  C:0795H         LINE#         25
  C:079EH         LINE#         26
  C:079EH         LINE#         27
  C:07A0H         LINE#         28
  C:07A0H         LINE#         29
  C:07B5H         LINE#         30
  C:07CDH         LINE#         31
  C:07CDH         LINE#         32
  C:07CEH         LINE#         33
  C:07CEH         LINE#         34
  C:07CEH         LINE#         35
  C:07D7H         LINE#         36
  C:07D7H         LINE#         37
  C:07D9H         LINE#         38
  C:07DBH         LINE#         39
  C:07E4H         LINE#         40
  C:07E4H         LINE#         41
  C:07E6H         LINE#         42
  C:07E6H         LINE#         43
  C:07FBH         LINE#         44
  C:0810H         LINE#         45
  C:0810H         LINE#         46
  C:0811H         LINE#         47
  C:0811H         LINE#         48
  C:0811H         LINE#         50
  C:081AH         LINE#         51
  C:081AH         LINE#         52
  C:081CH         LINE#         53
  C:081DH         LINE#         54
  C:0826H         LINE#         55
  C:0826H         LINE#         56
BL51 BANKED LINKER/LOCATER V6.22.2.0                                                  03/08/2025  15:36:44  PAGE 6


  C:0828H         LINE#         57
  C:0828H         LINE#         58
  C:0828H         LINE#         59
  C:0829H         LINE#         60
  C:0829H         LINE#         61
  C:0829H         LINE#         63
  C:082FH         LINE#         64
  C:082FH         LINE#         65
  C:0832H         LINE#         66
  C:0835H         LINE#         67
  C:083AH         LINE#         68
  C:083BH         LINE#         70
  C:083BH         LINE#         71
  C:0848H         LINE#         72
  C:0848H         LINE#         73
  C:084BH         LINE#         74
  C:084EH         LINE#         75
  C:0851H         LINE#         76
  C:085EH         LINE#         77
  C:0860H         LINE#         79
  C:0860H         LINE#         80
  C:0863H         LINE#         81
  C:087CH         LINE#         82
  C:087CH         LINE#         83
  C:087CH         LINE#         84
  C:087CH         LINE#         85
  C:087CH         LINE#         86
  C:087CH         LINE#         87
  -------         ENDPROC       TASK_KEY
  -------         PROC          MAIN
  C:05A1H         LINE#         88
  C:05A1H         LINE#         89
  C:05A1H         LINE#         90
  C:05A4H         LINE#         91
  C:05AEH         LINE#         92
  C:05C3H         LINE#         93
  C:05C6H         LINE#         94
  C:05C9H         LINE#         95
  C:05C9H         LINE#         96
  C:05C9H         LINE#         97
  C:05CCH         LINE#         98
  C:05CCH         LINE#         99
  C:05CEH         LINE#         100
  C:05D1H         LINE#         101
  C:05D1H         LINE#         102
  C:05D4H         LINE#         103
  C:05D4H         LINE#         104
  C:05D6H         LINE#         105
  C:05D9H         LINE#         106
  C:05D9H         LINE#         107
  C:05DFH         LINE#         108
  C:05DFH         LINE#         109
  C:05E1H         LINE#         110
  C:05F6H         LINE#         111
  C:0636H         LINE#         112
  C:068FH         LINE#         113
  C:06FEH         LINE#         114
BL51 BANKED LINKER/LOCATER V6.22.2.0                                                  03/08/2025  15:36:44  PAGE 7


  C:0762H         LINE#         115
  C:0762H         LINE#         122
  C:0768H         LINE#         123
  C:0768H         LINE#         124
  C:076AH         LINE#         125
  C:076DH         LINE#         126
  C:076DH         LINE#         127
  -------         ENDPROC       MAIN
  -------         PROC          ULTRA_NUM
  C:0B3BH         LINE#         130
  C:0B3BH         LINE#         131
  C:0B3BH         LINE#         132
  C:0B3EH         LINE#         133
  C:0B40H         LINE#         134
  C:0B46H         LINE#         135
  C:0B48H         LINE#         136
  C:0B4BH         LINE#         137
  C:0B4BH         LINE#         138
  C:0B4DH         LINE#         139
  C:0B53H         LINE#         140
  C:0B55H         LINE#         142
  C:0B55H         LINE#         143
  C:0B5CH         LINE#         144
  C:0B63H         LINE#         145
  C:0B69H         LINE#         147
  C:0B82H         LINE#         148
  C:0B82H         LINE#         149
  C:0B85H         LINE#         150
  C:0B87H         LINE#         153
  -------         ENDPROC       ULTRA_NUM
  -------         PROC          TIMER1_INIT
  C:0D9FH         LINE#         154
  C:0D9FH         LINE#         155
  C:0D9FH         LINE#         156
  C:0DA2H         LINE#         157
  C:0DA5H         LINE#         158
  C:0DA8H         LINE#         159
  C:0DAAH         LINE#         160
  C:0DACH         LINE#         162
  -------         ENDPROC       TIMER1_INIT
  -------         PROC          DELAY14US
  -------         DO            
  D:0007H         SYMBOL        i
  -------         ENDDO         
  C:0003H         LINE#         164
  C:0003H         LINE#         165
  C:0003H         LINE#         168
  C:0004H         LINE#         169
  C:0005H         LINE#         170
  C:0007H         LINE#         171
  C:0009H         LINE#         172
  -------         ENDPROC       DELAY14US
  -------         PROC          ULTRA_WAVE
  -------         DO            
  D:0006H         SYMBOL        i
  -------         ENDDO         
  C:0D34H         LINE#         174
BL51 BANKED LINKER/LOCATER V6.22.2.0                                                  03/08/2025  15:36:44  PAGE 8


  C:0D34H         LINE#         175
  C:0D34H         LINE#         177
  C:0D40H         LINE#         178
  C:0D40H         LINE#         179
  C:0D45H         LINE#         180
  C:0D4AH         LINE#         181
  C:0D4DH         LINE#         182
  -------         ENDPROC       ULTRA_WAVE
  -------         PROC          SEG_REFRESH
  C:0399H         LINE#         184
  C:0399H         LINE#         185
  C:0399H         LINE#         186
  C:03B7H         LINE#         187
  C:03B7H         LINE#         188
  C:03B7H         LINE#         189
  C:03B7H         LINE#         190
  C:03D5H         LINE#         191
  C:03E4H         LINE#         192
  C:0400H         LINE#         193
  C:0404H         LINE#         194
  C:0404H         LINE#         195
  C:0407H         LINE#         196
  C:0407H         LINE#         197
  C:0407H         LINE#         198
  C:0419H         LINE#         199
  C:042BH         LINE#         200
  C:0442H         LINE#         201
  C:046BH         LINE#         203
  C:046BH         LINE#         204
  C:046CH         LINE#         205
  C:046CH         LINE#         206
  C:046CH         LINE#         207
  C:047EH         LINE#         208
  C:04A6H         LINE#         209
  C:04B6H         LINE#         210
  C:04C8H         LINE#         211
  C:04C8H         LINE#         212
  C:04C9H         LINE#         213
  C:04C9H         LINE#         214
  C:04C9H         LINE#         215
  C:04E1H         LINE#         216
  C:0526H         LINE#         218
  C:0526H         LINE#         219
  C:0527H         LINE#         220
  C:0527H         LINE#         221
  C:0527H         LINE#         222
  C:052DH         LINE#         223
  C:05A0H         LINE#         224
  C:05A0H         LINE#         225
  C:05A0H         LINE#         226
  C:05A0H         LINE#         227
  -------         ENDPROC       SEG_REFRESH
  -------         PROC          TIMER0
  C:087DH         LINE#         228
  C:089AH         LINE#         230
  C:089DH         LINE#         231
  C:08A3H         LINE#         232
BL51 BANKED LINKER/LOCATER V6.22.2.0                                                  03/08/2025  15:36:44  PAGE 9


  C:08A6H         LINE#         233
  C:08C7H         LINE#         234
  C:08CAH         LINE#         235
  C:08CDH         LINE#         236
  C:08DAH         LINE#         237
  C:08E0H         LINE#         238
  C:08E3H         LINE#         239
  C:08F5H         LINE#         241
  C:08F8H         LINE#         242
  -------         ENDPROC       TIMER0
  -------         PROC          KEY_SCAN
  C:0ADCH         LINE#         317
  C:0ADCH         LINE#         318
  C:0ADCH         LINE#         319
  C:0AE8H         LINE#         320
  C:0AE8H         LINE#         321
  C:0AE8H         LINE#         322
  C:0AE8H         LINE#         323
  C:0AF7H         LINE#         324
  C:0AF7H         LINE#         325
  C:0AF8H         LINE#         326
  C:0AF8H         LINE#         327
  C:0AF8H         LINE#         328
  C:0B01H         LINE#         329
  C:0B0AH         LINE#         330
  C:0B13H         LINE#         331
  C:0B1CH         LINE#         332
  C:0B1CH         LINE#         333
  C:0B1DH         LINE#         334
  C:0B1DH         LINE#         335
  C:0B1DH         LINE#         336
  C:0B29H         LINE#         337
  C:0B29H         LINE#         338
  C:0B34H         LINE#         339
  C:0B35H         LINE#         341
  C:0B35H         LINE#         342
  C:0B38H         LINE#         343
  C:0B3AH         LINE#         344
  C:0B3AH         LINE#         345
  C:0B3AH         LINE#         346
  C:0B3AH         LINE#         347
  C:0B3AH         LINE#         348
  -------         ENDPROC       KEY_SCAN
  -------         PROC          TIMER0_INIT
  C:0D66H         LINE#         350
  C:0D66H         LINE#         351
  C:0D66H         LINE#         352
  C:0D69H         LINE#         353
  C:0D6CH         LINE#         354
  C:0D6FH         LINE#         355
  C:0D72H         LINE#         356
  C:0D74H         LINE#         357
  C:0D76H         LINE#         358
  C:0D78H         LINE#         359
  C:0D7AH         LINE#         360
  -------         ENDPROC       TIMER0_INIT
  -------         PROC          ALL_INIT
BL51 BANKED LINKER/LOCATER V6.22.2.0                                                  03/08/2025  15:36:44  PAGE 10


  C:0BEBH         LINE#         362
  C:0BEBH         LINE#         363
  C:0BEBH         LINE#         364
  C:0BEEH         LINE#         365
  C:0BF4H         LINE#         366
  C:0BF7H         LINE#         367
  C:0BFAH         LINE#         368
  C:0BFDH         LINE#         369
  C:0C00H         LINE#         370
  C:0C03H         LINE#         371
  C:0C09H         LINE#         372
  C:0C0CH         LINE#         373
  C:0C0EH         LINE#         374
  C:0C14H         LINE#         375
  C:0C17H         LINE#         376
  -------         ENDPROC       ALL_INIT
  -------         PROC          _DELAY_MS
  D:0006H         SYMBOL        ms
  -------         DO            
  D:0004H         SYMBOL        i
  D:0002H         SYMBOL        j
  -------         ENDDO         
  C:0CD9H         LINE#         377
  C:0CD9H         LINE#         378
  C:0CD9H         LINE#         380
  C:0CE3H         LINE#         381
  C:0CF8H         LINE#         382
  -------         ENDPROC       _DELAY_MS
  -------         ENDMOD        MAIN

  -------         MODULE        ONEWIRE
  C:0000H         SYMBOL        _ICE_DUMMY_
  D:0090H         PUBLIC        P1
  D:00B0H         PUBLIC        P3
  C:0CB6H         PUBLIC        Read_DS18B20
  D:00A8H         PUBLIC        IE
  C:0CFDH         PUBLIC        _Delay_OneWire
  C:0C42H         PUBLIC        _Write_DS18B20
  B:0090H.4       PUBLIC        DQ
  D:00B8H         PUBLIC        IP
  C:0C69H         PUBLIC        init_ds18b20
  D:0098H         PUBLIC        SCON
  D:0088H         PUBLIC        TCON
  C:0A78H         PUBLIC        Temp_get
  D:00C8H         PUBLIC        T2CON
  D:00D0H         PUBLIC        PSW
  C:0CF9H         SYMBOL        L?0020
  -------         PROC          L?0019
  -------         ENDPROC       L?0019
  C:0CF9H         SYMBOL        L?0020
  -------         PROC          _DELAY_ONEWIRE
  D:0006H         SYMBOL        t
  -------         DO            
  D:0005H         SYMBOL        i
  -------         ENDDO         
  C:0CFDH         LINE#         12
  C:0CFDH         LINE#         13
BL51 BANKED LINKER/LOCATER V6.22.2.0                                                  03/08/2025  15:36:44  PAGE 11


  C:0CFDH         LINE#         15
  C:0D07H         LINE#         16
  C:0D16H         LINE#         17
  C:0D16H         LINE#         18
  -------         ENDPROC       _DELAY_ONEWIRE
  -------         PROC          _WRITE_DS18B20
  D:0001H         SYMBOL        dat
  -------         DO            
  D:0003H         SYMBOL        i
  -------         ENDDO         
  C:0C42H         LINE#         21
  C:0C44H         LINE#         22
  C:0C44H         LINE#         24
  C:0C50H         LINE#         25
  C:0C50H         LINE#         26
  C:0C52H         LINE#         27
  C:0C56H         LINE#         28
  C:0C59H         LINE#         29
  C:0C5BH         LINE#         30
  C:0C5FH         LINE#         31
  C:0C62H         LINE#         32
  -------         ENDPROC       _WRITE_DS18B20
  -------         PROC          READ_DS18B20
  -------         DO            
  D:0003H         SYMBOL        i
  D:0004H         SYMBOL        dat
  -------         ENDDO         
  C:0CB6H         LINE#         36
  C:0CB6H         LINE#         37
  C:0CB6H         LINE#         41
  C:0CC2H         LINE#         42
  C:0CC2H         LINE#         43
  C:0CC4H         LINE#         44
  C:0CC8H         LINE#         45
  C:0CCAH         LINE#         46
  C:0CCDH         LINE#         47
  C:0CCDH         LINE#         48
  C:0CD0H         LINE#         49
  C:0CD0H         LINE#         50
  C:0CD3H         LINE#         51
  C:0CD6H         LINE#         52
  C:0CD8H         LINE#         53
  -------         ENDPROC       READ_DS18B20
  -------         PROC          INIT_DS18B20
  -------         DO            
  B:0020H.6       SYMBOL        initflag
  -------         ENDDO         
  C:0C69H         LINE#         56
  C:0C69H         LINE#         57
  C:0C69H         LINE#         58
  C:0C6BH         LINE#         60
  C:0C6DH         LINE#         61
  C:0C74H         LINE#         62
  C:0C76H         LINE#         63
  C:0C7DH         LINE#         64
  C:0C7FH         LINE#         65
  C:0C86H         LINE#         66
BL51 BANKED LINKER/LOCATER V6.22.2.0                                                  03/08/2025  15:36:44  PAGE 12


  C:0C8AH         LINE#         67
  C:0C8DH         LINE#         69
  C:0C8FH         LINE#         70
  -------         ENDPROC       INIT_DS18B20
  -------         PROC          TEMP_GET
  -------         DO            
  D:0007H         SYMBOL        high
  D:0001H         SYMBOL        low
  D:0008H         SYMBOL        temp
  -------         ENDDO         
  C:0A78H         LINE#         72
  C:0A78H         LINE#         73
  C:0A78H         LINE#         76
  C:0A7BH         LINE#         77
  C:0A80H         LINE#         78
  C:0A85H         LINE#         79
  C:0A8CH         LINE#         81
  C:0A8FH         LINE#         82
  C:0A94H         LINE#         83
  C:0A99H         LINE#         85
  C:0A9EH         LINE#         86
  C:0AA1H         LINE#         88
  C:0AAEH         LINE#         89
  C:0AC1H         LINE#         90
  C:0AD4H         LINE#         92
  C:0ADBH         LINE#         93
  -------         ENDPROC       TEMP_GET
  -------         ENDMOD        ONEWIRE

  -------         MODULE        IIC
  C:0000H         SYMBOL        _ICE_DUMMY_
  D:00A0H         PUBLIC        P2
  C:0C18H         PUBLIC        _AD_read
  C:0DB1H         SYMBOL        _I2C_Delay
  C:0D7BH         PUBLIC        _AD_write
  C:0C90H         PUBLIC        I2CReceiveByte
  B:00A0H.1       PUBLIC        sda
  B:00A0H.0       PUBLIC        scl
  C:0D90H         PUBLIC        I2CStart
  C:0D4EH         PUBLIC        _I2CSendAck
  C:0B88H         PUBLIC        _I2CSendByte
  C:0D22H         PUBLIC        I2CWaitAck
  C:0DB9H         PUBLIC        I2CStop
  C:0DADH         SYMBOL        L?0024
  -------         PROC          L?0023
  -------         ENDPROC       L?0023
  C:0DADH         SYMBOL        L?0024
  -------         PROC          _I2C_DELAY
  D:0007H         SYMBOL        n
  C:0DB1H         LINE#         14
  C:0DB1H         LINE#         15
  C:0DB1H         LINE#         17
  C:0DB1H         LINE#         18
  C:0DB2H         LINE#         19
  C:0DB2H         LINE#         20
  C:0DB8H         LINE#         21
  -------         ENDPROC       _I2C_DELAY
BL51 BANKED LINKER/LOCATER V6.22.2.0                                                  03/08/2025  15:36:44  PAGE 13


  -------         PROC          I2CSTART
  C:0D90H         LINE#         24
  C:0D90H         LINE#         25
  C:0D90H         LINE#         26
  C:0D92H         LINE#         27
  C:0D92H         LINE#         28
  C:0D95H         LINE#         29
  C:0D97H         LINE#         30
  C:0D9CH         LINE#         31
  C:0D9EH         LINE#         32
  -------         ENDPROC       I2CSTART
  -------         PROC          I2CSTOP
  C:0DB9H         LINE#         35
  C:0DB9H         LINE#         36
  C:0DB9H         LINE#         37
  C:0DBBH         LINE#         38
  C:0DBBH         LINE#         39
  C:0DBEH         LINE#         40
  C:0DC0H         LINE#         41
  -------         ENDPROC       I2CSTOP
  -------         PROC          _I2CSENDBYTE
  D:0005H         SYMBOL        byt
  -------         DO            
  D:0004H         SYMBOL        i
  -------         ENDDO         
  C:0B88H         LINE#         45
  C:0B8AH         LINE#         46
  C:0B8AH         LINE#         49
  C:0B96H         LINE#         50
  C:0B98H         LINE#         51
  C:0B9DH         LINE#         52
  C:0BA1H         LINE#         53
  C:0BA3H         LINE#         54
  C:0BA5H         LINE#         55
  C:0BA5H         LINE#         56
  C:0BA7H         LINE#         57
  C:0BA7H         LINE#         58
  C:0BACH         LINE#         59
  C:0BAEH         LINE#         60
  C:0BB2H         LINE#         61
  C:0BB7H         LINE#         62
  C:0BBAH         LINE#         64
  C:0BBCH         LINE#         65
  -------         ENDPROC       _I2CSENDBYTE
  -------         PROC          I2CRECEIVEBYTE
  -------         DO            
  D:0005H         SYMBOL        da
  D:0004H         SYMBOL        i
  -------         ENDDO         
  C:0C90H         LINE#         68
  C:0C90H         LINE#         69
  C:0C90H         LINE#         72
  C:0C9CH         LINE#         73
  C:0C9CH         LINE#         74
  C:0C9FH         LINE#         75
  C:0CA3H         LINE#         76
  C:0CA6H         LINE#         77
BL51 BANKED LINKER/LOCATER V6.22.2.0                                                  03/08/2025  15:36:44  PAGE 14


  C:0CA9H         LINE#         78
  C:0CABH         LINE#         79
  C:0CB0H         LINE#         80
  C:0CB3H         LINE#         81
  C:0CB5H         LINE#         82
  -------         ENDPROC       I2CRECEIVEBYTE
  -------         PROC          L?0022
  -------         ENDPROC       L?0022
  -------         PROC          I2CWAITACK
  -------         DO            
  D:0005H         SYMBOL        ackbit
  -------         ENDDO         
  C:0D22H         LINE#         85
  C:0D22H         LINE#         86
  C:0D22H         LINE#         89
  C:0D22H         LINE#         90
  C:0D25H         LINE#         91
  C:0D2AH         LINE#         92
  C:0D2CH         LINE#         93
  C:0D31H         LINE#         95
  C:0D33H         LINE#         96
  -------         ENDPROC       I2CWAITACK
  -------         PROC          _I2CSENDACK
  D:0007H         SYMBOL        ackbit
  C:0D4EH         LINE#         99
  C:0D4EH         LINE#         100
  C:0D4EH         LINE#         101
  C:0D50H         LINE#         102
  C:0D55H         LINE#         103
  C:0D5AH         LINE#         104
  C:0D5AH         LINE#         105
  C:0D5DH         LINE#         106
  C:0D5FH         LINE#         107
  C:0D61H         LINE#         108
  -------         ENDPROC       _I2CSENDACK
  -------         PROC          _AD_WRITE
  D:0003H         SYMBOL        dat
  C:0D7BH         LINE#         111
  C:0D7DH         LINE#         112
  C:0D7DH         LINE#         113
  C:0D80H         LINE#         114
  C:0D85H         LINE#         115
  C:0D88H         LINE#         116
  C:0D8AH         LINE#         117
  C:0D8AH         LINE#         118
  C:0D8AH         LINE#         119
  C:0D8DH         LINE#         120
  -------         ENDPROC       _AD_WRITE
  -------         PROC          _AD_READ
  D:0002H         SYMBOL        add
  -------         DO            
  D:0005H         SYMBOL        dat
  -------         ENDDO         
  C:0C18H         LINE#         123
  C:0C1CH         LINE#         124
  C:0C1CH         LINE#         127
  C:0C1FH         LINE#         128
BL51 BANKED LINKER/LOCATER V6.22.2.0                                                  03/08/2025  15:36:44  PAGE 15


  C:0C21H         LINE#         129
  C:0C21H         LINE#         130
  C:0C21H         LINE#         131
  C:0C24H         LINE#         132
  C:0C27H         LINE#         134
  C:0C2AH         LINE#         135
  C:0C2FH         LINE#         136
  C:0C32H         LINE#         137
  C:0C37H         LINE#         138
  C:0C3CH         LINE#         139
  C:0C3FH         LINE#         141
  C:0C41H         LINE#         142
  -------         ENDPROC       _AD_READ
  -------         ENDMOD        IIC

  -------         MODULE        ?C?FPMUL
  C:000EH         PUBLIC        ?C?FPMUL
  -------         ENDMOD        ?C?FPMUL

  -------         MODULE        ?C?FCAST
  C:011EH         PUBLIC        ?C?FCASTC
  C:0119H         PUBLIC        ?C?FCASTI
  C:0114H         PUBLIC        ?C?FCASTL
  -------         ENDMOD        ?C?FCAST

  -------         MODULE        ?C?CASTF
  C:0152H         PUBLIC        ?C?CASTF
  -------         ENDMOD        ?C?CASTF

  -------         MODULE        ?C?SCDIV
  C:01D3H         PUBLIC        ?C?SCDIV
  -------         ENDMOD        ?C?SCDIV

  -------         MODULE        ?C?UIDIV
  C:01F5H         PUBLIC        ?C?UIDIV
  -------         ENDMOD        ?C?UIDIV

  -------         MODULE        ?C?LMUL
  C:024AH         PUBLIC        ?C?LMUL
  -------         ENDMOD        ?C?LMUL

  -------         MODULE        ?C?ULDIV
  C:02D5H         PUBLIC        ?C?ULDIV
  -------         ENDMOD        ?C?ULDIV

  -------         MODULE        ?C?LNEG
  C:0367H         PUBLIC        ?C?LNEG
  -------         ENDMOD        ?C?LNEG

  -------         MODULE        ?C?ULCMP
  C:0375H         PUBLIC        ?C?ULCMP
  -------         ENDMOD        ?C?ULCMP

  -------         MODULE        ?C?LSHL
  C:0386H         PUBLIC        ?C?LSHL
  -------         ENDMOD        ?C?LSHL

BL51 BANKED LINKER/LOCATER V6.22.2.0                                                  03/08/2025  15:36:44  PAGE 16


*** WARNING L16: UNCALLED SEGMENT, IGNORED FOR OVERLAY PROCESS
    SEGMENT: ?PR?_AD_READ?IIC

Program Size: data=63.7 xdata=0 code=3524
LINK/LOCATE RUN COMPLETE.  1 WARNING(S),  0 ERROR(S)
