BL51 BANKED LINKER/LOCATER V6.22.2.0                                                    03/16/2025  14:12:07  PAGE 1


BL51 BANKED LINKER/LOCATER V6.22.2.0, INVOKED BY:
D:\KEIL5-1\C51\BIN\BL51.EXE .\Objects\main.obj, .\Objects\onewire.obj, .\Objects\ds1302.obj TO .\Objects\test PRINT (.\L
>> istings\test.m51) RAMSIZE (256)


MEMORY MODEL: SMALL


INPUT MODULES INCLUDED:
  .\Objects\main.obj (MAIN)
  .\Objects\onewire.obj (ONEWIRE)
  .\Objects\ds1302.obj (DS1302)
  D:\KEIL5-1\C51\LIB\C51S.LIB (?C_STARTUP)
  D:\KEIL5-1\C51\LIB\C51S.LIB (?C?IMUL)
  D:\KEIL5-1\C51\LIB\C51S.LIB (?C?UIDIV)
  D:\KEIL5-1\C51\LIB\C51S.LIB (?C?SIDIV)
  D:\KEIL5-1\C51\LIB\C51S.LIB (?C?LMUL)
  D:\KEIL5-1\C51\LIB\C51S.LIB (?C?ULDIV)
  D:\KEIL5-1\C51\LIB\C51S.LIB (?C?SLDIV)
  D:\KEIL5-1\C51\LIB\C51S.LIB (?C?LSHL)
  D:\KEIL5-1\C51\LIB\C51S.LIB (?C_INIT)


LINK MAP OF MODULE:  .\Objects\test (MAIN)


            TYPE    BASE      LENGTH    RELOCATION   SEGMENT NAME
            -----------------------------------------------------

            * * * * * * *   D A T A   M E M O R Y   * * * * * * *
            REG     0000H     0008H     ABSOLUTE     "REG BANK 0"
            DATA    0008H     000CH     UNIT         ?DT?DS1302
            DATA    0014H     0004H     UNIT         _DATA_GROUP_
                    0018H     0008H                  *** GAP ***
            BIT     0020H.0   0001H.2   UNIT         ?BI?MAIN
            BIT     0021H.2   0000H.1   UNIT         _BIT_GROUP_
                    0021H.3   0000H.5                *** GAP ***
            DATA    0022H     003DH     UNIT         ?DT?MAIN
            IDATA   005FH     0001H     UNIT         ?STACK

            * * * * * * *   C O D E   M E M O R Y   * * * * * * *
            CODE    0000H     0003H     ABSOLUTE     
                    0003H     0008H                  *** GAP ***
            CODE    000BH     0003H     ABSOLUTE     
                    000EH     000DH                  *** GAP ***
            CODE    001BH     0003H     ABSOLUTE     
            CODE    001EH     0232H     UNIT         ?PR?SHOW_TAST?MAIN
            CODE    0250H     01CDH     UNIT         ?C?LIB_CODE
            CODE    041DH     01C5H     UNIT         ?PR?MAIN?MAIN
            CODE    05E2H     019AH     UNIT         ?PR?KEY_TAST?MAIN
            CODE    077CH     0096H     UNIT         ?PR?TIME0?MAIN
            CODE    0812H     0092H     UNIT         ?C_INITSEG
            CODE    08A4H     008CH     UNIT         ?C_C51STARTUP
            CODE    0930H     007AH     UNIT         ?PR?KEY_SCAN?MAIN
            CODE    09AAH     0070H     UNIT         ?PR?CLOCK_TAST?MAIN
            CODE    0A1AH     0068H     UNIT         ?PR?TIME_INIT?DS1302
            CODE    0A82H     0064H     UNIT         ?PR?TEMP_GET?ONEWIRE
            CODE    0AE6H     0055H     UNIT         ?PR?TIME_GET?DS1302
BL51 BANKED LINKER/LOCATER V6.22.2.0                                                  03/16/2025  14:12:07  PAGE 2


            CODE    0B3BH     0044H     UNIT         ?C?LDIV
            CODE    0B7FH     003FH     UNIT         ?PR?TIME5?MAIN
            CODE    0BBEH     003DH     UNIT         ?PR?_READ_DS1302_BYTE?DS1302
            CODE    0BFBH     002EH     UNIT         ?CO?MAIN
            CODE    0C29H     002DH     UNIT         ?PR?ALL_INIT?MAIN
            CODE    0C56H     0027H     UNIT         ?PR?_WRITE_DS18B20?ONEWIRE
            CODE    0C7DH     0027H     UNIT         ?PR?INIT_DS18B20?ONEWIRE
            CODE    0CA4H     0023H     UNIT         ?PR?READ_DS18B20?ONEWIRE
            CODE    0CC7H     0020H     UNIT         ?PR?_DELAY_MS?MAIN
            CODE    0CE7H     001EH     UNIT         ?PR?_DELAY_ONEWIRE?ONEWIRE
            CODE    0D05H     001CH     UNIT         ?PR?_WRITE_DS1302?DS1302
            CODE    0D21H     0015H     UNIT         ?PR?TIMER1_INIT?MAIN
            CODE    0D36H     0015H     UNIT         ?PR?TIMER0_INIT?MAIN
            CODE    0D4BH     0014H     UNIT         ?PR?_WRITE_DS1302_BYTE?DS1302



OVERLAY MAP OF MODULE:   .\Objects\test (MAIN)


SEGMENT                                  BIT_GROUP          DATA_GROUP 
  +--> CALLED SEGMENT                 START    LENGTH     START    LENGTH
-------------------------------------------------------------------------
?PR?TIME0?MAIN                        -----    -----      -----    -----
  +--> ?CO?MAIN
  +--> ?PR?CLOCK_TAST?MAIN

?PR?CLOCK_TAST?MAIN                   -----    -----      -----    -----
  +--> ?PR?KEY_SCAN?MAIN

*** NEW ROOT ***************************************************

?C_C51STARTUP                         -----    -----      -----    -----
  +--> ?PR?MAIN?MAIN
  +--> ?C_INITSEG

?PR?MAIN?MAIN                         -----    -----      -----    -----
  +--> ?PR?ALL_INIT?MAIN
  +--> ?PR?_DELAY_MS?MAIN
  +--> ?PR?TEMP_GET?ONEWIRE
  +--> ?PR?TIMER0_INIT?MAIN
  +--> ?PR?TIMER1_INIT?MAIN
  +--> ?PR?TIME_INIT?DS1302
  +--> ?PR?TIME_GET?DS1302
  +--> ?PR?SHOW_TAST?MAIN
  +--> ?PR?KEY_TAST?MAIN

?PR?TEMP_GET?ONEWIRE                  -----    -----      0014H    0004H
  +--> ?PR?INIT_DS18B20?ONEWIRE
  +--> ?PR?_WRITE_DS18B20?ONEWIRE
  +--> ?PR?_DELAY_ONEWIRE?ONEWIRE
  +--> ?PR?READ_DS18B20?ONEWIRE

?PR?INIT_DS18B20?ONEWIRE              0021H.2  0000H.1    -----    -----
  +--> ?PR?_DELAY_ONEWIRE?ONEWIRE

?PR?_WRITE_DS18B20?ONEWIRE            -----    -----      -----    -----
BL51 BANKED LINKER/LOCATER V6.22.2.0                                                  03/16/2025  14:12:07  PAGE 3


  +--> ?PR?_DELAY_ONEWIRE?ONEWIRE

?PR?READ_DS18B20?ONEWIRE              -----    -----      -----    -----
  +--> ?PR?_DELAY_ONEWIRE?ONEWIRE

?PR?TIME_INIT?DS1302                  -----    -----      0014H    0004H
  +--> ?PR?_WRITE_DS1302_BYTE?DS1302

?PR?_WRITE_DS1302_BYTE?DS1302         -----    -----      -----    -----
  +--> ?PR?_WRITE_DS1302?DS1302

?PR?TIME_GET?DS1302                   -----    -----      0014H    0002H
  +--> ?PR?_READ_DS1302_BYTE?DS1302

?PR?_READ_DS1302_BYTE?DS1302          -----    -----      -----    -----
  +--> ?PR?_WRITE_DS1302?DS1302

?PR?KEY_TAST?MAIN                     -----    -----      -----    -----
  +--> ?PR?TIME_INIT?DS1302



SYMBOL TABLE OF MODULE:  .\Objects\test (MAIN)

  VALUE           TYPE          NAME
  ----------------------------------

  -------         MODULE        MAIN
  C:0000H         SYMBOL        _ICE_DUMMY_
  D:0022H         PUBLIC        led_tt
  D:0080H         PUBLIC        P0
  D:0090H         PUBLIC        P1
  D:0023H         PUBLIC        temp_tt
  D:00A0H         PUBLIC        P2
  D:00B0H         PUBLIC        P3
  D:00C0H         PUBLIC        P4
  D:00C8H         PUBLIC        P5
  D:00E8H         PUBLIC        P6
  B:00A8H.7       PUBLIC        EA
  D:00F8H         PUBLIC        P7
  D:0025H         PUBLIC        show_tt
  D:00A8H         PUBLIC        IE
  D:0026H         PUBLIC        key_tt
  D:00B8H         PUBLIC        IP
  D:0027H         PUBLIC        pwm_tt
  D:0029H         PUBLIC        zheng
  D:00D8H         PUBLIC        CCON
  C:041DH         PUBLIC        main
  C:0D36H         PUBLIC        Timer0_Init
  C:0D21H         PUBLIC        Timer1_Init
  C:09AAH         PUBLIC        clock_tast
  D:002BH         PUBLIC        freq
  B:0020H.0       PUBLIC        flash_bit
  B:0020H.1       PUBLIC        led_flag
  B:00B0H.0       PUBLIC        P30
  B:00B0H.1       PUBLIC        P31
  D:0098H         PUBLIC        SCON
BL51 BANKED LINKER/LOCATER V6.22.2.0                                                  03/16/2025  14:12:07  PAGE 4


  B:00B0H.2       PUBLIC        P32
  D:0089H         PUBLIC        TMOD
  D:0088H         PUBLIC        TCON
  D:002DH         PUBLIC        fan
  B:00B0H.3       PUBLIC        P33
  B:00B0H.4       PUBLIC        P34
  D:008EH         PUBLIC        AUXR
  B:0020H.2       PUBLIC        buty_flag
  D:002FH         PUBLIC        flash_pos
  D:0030H         PUBLIC        buty
  B:0020H.3       PUBLIC        key_flag
  D:0032H         PUBLIC        show_state
  B:00A8H.1       PUBLIC        ET0
  B:00A8H.3       PUBLIC        ET1
  B:0088H.5       PUBLIC        TF0
  B:0088H.7       PUBLIC        TF1
  D:008CH         PUBLIC        TH0
  D:008DH         PUBLIC        TH1
  B:0020H.4       PUBLIC        time_ref
  D:008AH         PUBLIC        TL0
  C:0C29H         PUBLIC        all_init
  D:0033H         PUBLIC        num
  D:008BH         PUBLIC        TL1
  C:0930H         PUBLIC        key_scan
  C:0CC7H         PUBLIC        _delay_ms
  D:0035H         PUBLIC        zheng_now
  B:0020H.5       PUBLIC        led_ref
  B:0088H.4       PUBLIC        TR0
  B:0020H.6       PUBLIC        temp_ref
  D:0037H         PUBLIC        led_bit
  B:0088H.6       PUBLIC        TR1
  D:0038H         PUBLIC        key_time
  D:003AH         PUBLIC        temp_val
  C:077CH         PUBLIC        time0
  D:003EH         PUBLIC        seg_bit
  C:001EH         PUBLIC        show_tast
  B:0020H.7       PUBLIC        show_ref
  D:004EH         PUBLIC        time3
  B:0021H.0       PUBLIC        led_flag2
  C:0B7FH         PUBLIC        time5
  D:0054H         PUBLIC        flash_pos_bit
  D:0057H         PUBLIC        pwm_time
  C:05E2H         PUBLIC        key_tast
  D:0059H         PUBLIC        fan_now
  D:005BH         PUBLIC        key_val
  D:005CH         PUBLIC        keystate
  C:0BFBH         PUBLIC        seg_num
  B:0021H.1       PUBLIC        pwm_ref
  D:005DH         PUBLIC        time_tt
  D:00D0H         PUBLIC        PSW
  -------         PROC          CLOCK_TAST
  C:09AAH         LINE#         4
  C:09AAH         LINE#         5
  C:09AAH         LINE#         6
  C:09B7H         LINE#         7
  C:09C3H         LINE#         8
  C:09DBH         LINE#         9
BL51 BANKED LINKER/LOCATER V6.22.2.0                                                  03/16/2025  14:12:07  PAGE 5


  C:09F3H         LINE#         10
  C:0A01H         LINE#         11
  C:0A19H         LINE#         12
  -------         ENDPROC       CLOCK_TAST
  -------         PROC          MAIN
  C:041DH         LINE#         13
  C:041DH         LINE#         14
  C:041DH         LINE#         15
  C:0420H         LINE#         16
  C:0427H         LINE#         17
  C:0431H         LINE#         18
  C:0446H         LINE#         19
  C:0449H         LINE#         20
  C:044CH         LINE#         21
  C:0452H         LINE#         22
  C:0452H         LINE#         23
  C:0452H         LINE#         24
  C:0455H         LINE#         25
  C:0455H         LINE#         26
  C:0457H         LINE#         27
  C:045AH         LINE#         28
  C:045AH         LINE#         29
  C:045DH         LINE#         30
  C:045DH         LINE#         31
  C:045FH         LINE#         32
  C:0462H         LINE#         33
  C:0462H         LINE#         34
  C:0465H         LINE#         35
  C:0465H         LINE#         36
  C:0467H         LINE#         37
  C:047CH         LINE#         38
  C:047CH         LINE#         39
  C:047FH         LINE#         40
  C:047FH         LINE#         41
  C:0481H         LINE#         42
  C:0484H         LINE#         43
  C:0484H         LINE#         44
  C:04C8H         LINE#         45
  C:04C8H         LINE#         46
  C:04CBH         LINE#         47
  C:04CBH         LINE#         48
  C:04CDH         LINE#         49
  C:04E0H         LINE#         50
  C:04FEH         LINE#         51
  C:04FEH         LINE#         52
  C:0522H         LINE#         53
  C:0522H         LINE#         55
  C:0528H         LINE#         56
  C:0528H         LINE#         57
  C:052AH         LINE#         58
  C:054AH         LINE#         59
  C:054EH         LINE#         60
  C:055FH         LINE#         62
  C:056EH         LINE#         63
  C:057DH         LINE#         64
  C:0583H         LINE#         65
  C:0589H         LINE#         66
BL51 BANKED LINKER/LOCATER V6.22.2.0                                                  03/16/2025  14:12:07  PAGE 6


  C:0598H         LINE#         67
  C:05B4H         LINE#         68
  C:05D0H         LINE#         69
  C:05DFH         LINE#         70
  C:05DFH         LINE#         71
  -------         ENDPROC       MAIN
  -------         PROC          TIME5
  C:0B7FH         LINE#         74
  C:0B81H         LINE#         76
  C:0B84H         LINE#         77
  C:0B84H         LINE#         78
  C:0B8CH         LINE#         79
  C:0B8FH         LINE#         80
  C:0B8FH         LINE#         81
  C:0B91H         LINE#         82
  C:0B97H         LINE#         83
  C:0B9DH         LINE#         84
  C:0B9DH         LINE#         85
  C:0B9FH         LINE#         86
  C:0BA2H         LINE#         87
  C:0BA2H         LINE#         88
  C:0BAAH         LINE#         89
  C:0BADH         LINE#         90
  C:0BADH         LINE#         91
  C:0BAFH         LINE#         92
  C:0BB5H         LINE#         93
  C:0BBBH         LINE#         94
  C:0BBBH         LINE#         95
  C:0BBBH         LINE#         96
  -------         ENDPROC       TIME5
  -------         PROC          SHOW_TAST
  C:001EH         LINE#         99
  C:001EH         LINE#         100
  C:001EH         LINE#         101
  C:0034H         LINE#         102
  C:0034H         LINE#         103
  C:0034H         LINE#         104
  C:0034H         LINE#         105
  C:0043H         LINE#         106
  C:0052H         LINE#         107
  C:0058H         LINE#         108
  C:0067H         LINE#         109
  C:0076H         LINE#         110
  C:007CH         LINE#         111
  C:008BH         LINE#         112
  C:009AH         LINE#         113
  C:00ACH         LINE#         114
  C:00ACH         LINE#         115
  C:00ACH         LINE#         116
  C:00ACH         LINE#         117
  C:00AFH         LINE#         118
  C:00BEH         LINE#         119
  C:00BEH         LINE#         120
  C:00E5H         LINE#         121
  C:00EBH         LINE#         122
  C:00EBH         LINE#         123
  C:00EBH         LINE#         124
BL51 BANKED LINKER/LOCATER V6.22.2.0                                                  03/16/2025  14:12:07  PAGE 7


  C:00EEH         LINE#         125
  C:00EEH         LINE#         126
  C:00EEH         LINE#         127
  C:00F4H         LINE#         128
  C:00FAH         LINE#         129
  C:0100H         LINE#         130
  C:0106H         LINE#         131
  C:010CH         LINE#         132
  C:0123H         LINE#         133
  C:014CH         LINE#         134
  C:0152H         LINE#         135
  C:0152H         LINE#         136
  C:0153H         LINE#         137
  C:0153H         LINE#         138
  C:0153H         LINE#         139
  C:0162H         LINE#         140
  C:0171H         LINE#         141
  C:0177H         LINE#         142
  C:0186H         LINE#         143
  C:0195H         LINE#         144
  C:019BH         LINE#         145
  C:01AAH         LINE#         146
  C:01B9H         LINE#         147
  C:01CBH         LINE#         148
  C:01CBH         LINE#         149
  C:01DFH         LINE#         150
  C:01F5H         LINE#         151
  C:01F6H         LINE#         152
  C:01FFH         LINE#         153
  C:01FFH         LINE#         154
  C:0226H         LINE#         155
  C:024FH         LINE#         156
  C:024FH         LINE#         157
  C:024FH         LINE#         158
  C:024FH         LINE#         159
  C:024FH         LINE#         160
  -------         ENDPROC       SHOW_TAST
  -------         PROC          KEY_TAST
  C:05E2H         LINE#         163
  C:05E2H         LINE#         164
  C:05E2H         LINE#         165
  C:05E8H         LINE#         166
  C:05E8H         LINE#         167
  C:05EAH         LINE#         168
  C:05F2H         LINE#         169
  C:05F2H         LINE#         170
  C:05F5H         LINE#         171
  C:05FDH         LINE#         172
  C:05FFH         LINE#         173
  C:0609H         LINE#         174
  C:060DH         LINE#         175
  C:060DH         LINE#         176
  C:0610H         LINE#         177
  C:0617H         LINE#         178
  C:0619H         LINE#         179
  C:0619H         LINE#         180
  C:0619H         LINE#         181
BL51 BANKED LINKER/LOCATER V6.22.2.0                                                  03/16/2025  14:12:07  PAGE 8


  C:061FH         LINE#         182
  C:061FH         LINE#         183
  C:0621H         LINE#         184
  C:0623H         LINE#         185
  C:0625H         LINE#         186
  C:0632H         LINE#         187
  C:063BH         LINE#         188
  C:063BH         LINE#         189
  C:0644H         LINE#         190
  C:0644H         LINE#         191
  C:0646H         LINE#         192
  C:064FH         LINE#         193
  C:064FH         LINE#         194
  C:065DH         LINE#         195
  C:066FH         LINE#         196
  C:0681H         LINE#         197
  C:0693H         LINE#         198
  C:0696H         LINE#         199
  C:0698H         LINE#         200
  C:06A1H         LINE#         201
  C:06A1H         LINE#         202
  C:06AFH         LINE#         203
  C:06C1H         LINE#         204
  C:06D3H         LINE#         205
  C:06E5H         LINE#         207
  C:06E5H         LINE#         208
  C:06E5H         LINE#         209
  C:06EEH         LINE#         210
  C:06EEH         LINE#         211
  C:06F0H         LINE#         212
  C:06F9H         LINE#         213
  C:06F9H         LINE#         214
  C:0707H         LINE#         215
  C:0716H         LINE#         216
  C:0725H         LINE#         217
  C:0734H         LINE#         218
  C:0737H         LINE#         219
  C:0737H         LINE#         220
  C:0740H         LINE#         221
  C:0740H         LINE#         222
  C:074EH         LINE#         223
  C:075DH         LINE#         224
  C:076CH         LINE#         225
  C:077BH         LINE#         226
  C:077BH         LINE#         227
  C:077BH         LINE#         229
  -------         ENDPROC       KEY_TAST
  -------         PROC          KEY_SCAN
  C:0930H         LINE#         231
  C:0930H         LINE#         232
  C:0930H         LINE#         233
  C:093CH         LINE#         234
  C:093CH         LINE#         235
  C:093CH         LINE#         236
  C:093CH         LINE#         237
  C:094BH         LINE#         238
  C:094BH         LINE#         239
BL51 BANKED LINKER/LOCATER V6.22.2.0                                                  03/16/2025  14:12:07  PAGE 9


  C:094CH         LINE#         240
  C:094CH         LINE#         241
  C:094CH         LINE#         242
  C:0952H         LINE#         243
  C:0958H         LINE#         244
  C:095EH         LINE#         245
  C:0964H         LINE#         246
  C:0967H         LINE#         247
  C:0967H         LINE#         248
  C:0968H         LINE#         249
  C:0968H         LINE#         250
  C:0968H         LINE#         251
  C:0974H         LINE#         252
  C:0974H         LINE#         253
  C:097FH         LINE#         254
  C:098EH         LINE#         255
  C:098EH         LINE#         256
  C:0991H         LINE#         257
  C:0991H         LINE#         258
  C:0992H         LINE#         260
  C:0992H         LINE#         261
  C:0995H         LINE#         262
  C:0997H         LINE#         263
  C:09A6H         LINE#         264
  C:09A6H         LINE#         265
  C:09A9H         LINE#         266
  C:09A9H         LINE#         267
  C:09A9H         LINE#         268
  C:09A9H         LINE#         269
  C:09A9H         LINE#         270
  C:09A9H         LINE#         271
  -------         ENDPROC       KEY_SCAN
  -------         PROC          TIMER1_INIT
  C:0D21H         LINE#         273
  C:0D21H         LINE#         274
  C:0D21H         LINE#         275
  C:0D24H         LINE#         276
  C:0D27H         LINE#         277
  C:0D2AH         LINE#         278
  C:0D2DH         LINE#         279
  C:0D2FH         LINE#         280
  C:0D31H         LINE#         281
  C:0D33H         LINE#         282
  C:0D35H         LINE#         283
  -------         ENDPROC       TIMER1_INIT
  -------         PROC          TIME0
  C:077CH         LINE#         286
  C:0799H         LINE#         288
  C:079CH         LINE#         289
  C:07A2H         LINE#         290
  C:07A5H         LINE#         291
  C:07C6H         LINE#         292
  C:07C9H         LINE#         293
  C:07CCH         LINE#         294
  C:07D9H         LINE#         295
  C:07DFH         LINE#         296
  C:07E2H         LINE#         297
BL51 BANKED LINKER/LOCATER V6.22.2.0                                                  03/16/2025  14:12:07  PAGE 10


  C:07F4H         LINE#         299
  C:07F7H         LINE#         300
  -------         ENDPROC       TIME0
  -------         PROC          TIMER0_INIT
  C:0D36H         LINE#         302
  C:0D36H         LINE#         303
  C:0D36H         LINE#         304
  C:0D39H         LINE#         305
  C:0D3CH         LINE#         306
  C:0D3FH         LINE#         307
  C:0D42H         LINE#         308
  C:0D44H         LINE#         309
  C:0D46H         LINE#         310
  C:0D48H         LINE#         311
  C:0D4AH         LINE#         312
  -------         ENDPROC       TIMER0_INIT
  -------         PROC          ALL_INIT
  C:0C29H         LINE#         315
  C:0C29H         LINE#         316
  C:0C29H         LINE#         317
  C:0C2CH         LINE#         318
  C:0C32H         LINE#         319
  C:0C35H         LINE#         320
  C:0C38H         LINE#         321
  C:0C3BH         LINE#         322
  C:0C3EH         LINE#         323
  C:0C41H         LINE#         324
  C:0C47H         LINE#         325
  C:0C4AH         LINE#         326
  C:0C4CH         LINE#         327
  C:0C52H         LINE#         328
  C:0C55H         LINE#         329
  -------         ENDPROC       ALL_INIT
  -------         PROC          _DELAY_MS
  D:0006H         SYMBOL        ms
  -------         DO            
  D:0004H         SYMBOL        i
  D:0002H         SYMBOL        j
  -------         ENDDO         
  C:0CC7H         LINE#         331
  C:0CC7H         LINE#         332
  C:0CC7H         LINE#         334
  C:0CD1H         LINE#         335
  C:0CE6H         LINE#         336
  -------         ENDPROC       _DELAY_MS
  -------         ENDMOD        MAIN

  -------         MODULE        ONEWIRE
  C:0000H         SYMBOL        _ICE_DUMMY_
  D:0090H         PUBLIC        P1
  D:00B0H         PUBLIC        P3
  C:0CA4H         PUBLIC        Read_DS18B20
  D:00A8H         PUBLIC        IE
  C:0CEBH         PUBLIC        _Delay_OneWire
  C:0C56H         PUBLIC        _Write_DS18B20
  B:0090H.4       PUBLIC        DQ
  D:00B8H         PUBLIC        IP
BL51 BANKED LINKER/LOCATER V6.22.2.0                                                  03/16/2025  14:12:07  PAGE 11


  C:0C7DH         PUBLIC        init_ds18b20
  D:0098H         PUBLIC        SCON
  D:0088H         PUBLIC        TCON
  C:0A82H         PUBLIC        temp_get
  D:00C8H         PUBLIC        T2CON
  D:00D0H         PUBLIC        PSW
  C:0CE7H         SYMBOL        L?0020
  -------         PROC          L?0019
  -------         ENDPROC       L?0019
  C:0CE7H         SYMBOL        L?0020
  -------         PROC          _DELAY_ONEWIRE
  D:0006H         SYMBOL        t
  -------         DO            
  D:0005H         SYMBOL        i
  -------         ENDDO         
  C:0CEBH         LINE#         11
  C:0CEBH         LINE#         12
  C:0CEBH         LINE#         14
  C:0CF5H         LINE#         15
  C:0D04H         LINE#         16
  C:0D04H         LINE#         17
  -------         ENDPROC       _DELAY_ONEWIRE
  -------         PROC          _WRITE_DS18B20
  D:0001H         SYMBOL        dat
  -------         DO            
  D:0003H         SYMBOL        i
  -------         ENDDO         
  C:0C56H         LINE#         20
  C:0C58H         LINE#         21
  C:0C58H         LINE#         23
  C:0C64H         LINE#         24
  C:0C64H         LINE#         25
  C:0C66H         LINE#         26
  C:0C6AH         LINE#         27
  C:0C6DH         LINE#         28
  C:0C6FH         LINE#         29
  C:0C73H         LINE#         30
  C:0C76H         LINE#         31
  -------         ENDPROC       _WRITE_DS18B20
  -------         PROC          READ_DS18B20
  -------         DO            
  D:0003H         SYMBOL        i
  D:0004H         SYMBOL        dat
  -------         ENDDO         
  C:0CA4H         LINE#         35
  C:0CA4H         LINE#         36
  C:0CA4H         LINE#         40
  C:0CB0H         LINE#         41
  C:0CB0H         LINE#         42
  C:0CB2H         LINE#         43
  C:0CB6H         LINE#         44
  C:0CB8H         LINE#         45
  C:0CBBH         LINE#         46
  C:0CBBH         LINE#         47
  C:0CBEH         LINE#         48
  C:0CBEH         LINE#         49
  C:0CC1H         LINE#         50
BL51 BANKED LINKER/LOCATER V6.22.2.0                                                  03/16/2025  14:12:07  PAGE 12


  C:0CC4H         LINE#         51
  C:0CC6H         LINE#         52
  -------         ENDPROC       READ_DS18B20
  -------         PROC          INIT_DS18B20
  -------         DO            
  B:0021H.2       SYMBOL        initflag
  -------         ENDDO         
  C:0C7DH         LINE#         55
  C:0C7DH         LINE#         56
  C:0C7DH         LINE#         57
  C:0C7FH         LINE#         59
  C:0C81H         LINE#         60
  C:0C88H         LINE#         61
  C:0C8AH         LINE#         62
  C:0C91H         LINE#         63
  C:0C93H         LINE#         64
  C:0C9AH         LINE#         65
  C:0C9EH         LINE#         66
  C:0CA1H         LINE#         68
  C:0CA3H         LINE#         69
  -------         ENDPROC       INIT_DS18B20
  -------         PROC          TEMP_GET
  -------         DO            
  D:0007H         SYMBOL        high
  D:0001H         SYMBOL        low
  D:0014H         SYMBOL        temp
  -------         ENDDO         
  C:0A82H         LINE#         71
  C:0A82H         LINE#         72
  C:0A82H         LINE#         75
  C:0A85H         LINE#         76
  C:0A8AH         LINE#         77
  C:0A8FH         LINE#         78
  C:0A96H         LINE#         80
  C:0A99H         LINE#         81
  C:0A9EH         LINE#         82
  C:0AA3H         LINE#         84
  C:0AA8H         LINE#         85
  C:0AABH         LINE#         87
  C:0AB8H         LINE#         88
  C:0ACBH         LINE#         89
  C:0ADEH         LINE#         91
  C:0AE5H         LINE#         92
  -------         ENDPROC       TEMP_GET
  -------         ENDMOD        ONEWIRE

  -------         MODULE        DS1302
  C:0000H         SYMBOL        _ICE_DUMMY_
  D:0090H         PUBLIC        P1
  D:00A0H         PUBLIC        P2
  D:00B0H         PUBLIC        P3
  D:00A8H         PUBLIC        IE
  D:00B8H         PUBLIC        IP
  D:0098H         PUBLIC        SCON
  D:0088H         PUBLIC        TCON
  C:0A1AH         PUBLIC        time_init
  C:0AE6H         PUBLIC        time_get
BL51 BANKED LINKER/LOCATER V6.22.2.0                                                  03/16/2025  14:12:07  PAGE 13


  C:0BBEH         PUBLIC        _Read_Ds1302_Byte
  B:00A0H.3       PUBLIC        SDA
  B:0090H.7       PUBLIC        SCK
  D:0008H         PUBLIC        time1
  D:000EH         PUBLIC        time2
  C:0D4BH         PUBLIC        _Write_Ds1302_Byte
  D:00C8H         PUBLIC        T2CON
  C:0D05H         PUBLIC        _Write_Ds1302
  B:0090H.3       PUBLIC        RST
  D:00D0H         PUBLIC        PSW
  -------         PROC          _WRITE_DS1302
  D:0007H         SYMBOL        temp
  -------         DO            
  D:0006H         SYMBOL        i
  -------         ENDDO         
  C:0D05H         LINE#         18
  C:0D05H         LINE#         19
  C:0D05H         LINE#         21
  C:0D11H         LINE#         22
  C:0D11H         LINE#         23
  C:0D13H         LINE#         24
  C:0D17H         LINE#         25
  C:0D1BH         LINE#         26
  C:0D1DH         LINE#         27
  C:0D20H         LINE#         28
  -------         ENDPROC       _WRITE_DS1302
  -------         PROC          _WRITE_DS1302_BYTE
  D:0007H         SYMBOL        address
  D:0005H         SYMBOL        dat
  C:0D4BH         LINE#         31
  C:0D4BH         LINE#         32
  C:0D4BH         LINE#         33
  C:0D4EH         LINE#         34
  C:0D51H         LINE#         35
  C:0D54H         LINE#         36
  C:0D57H         LINE#         37
  C:0D5CH         LINE#         38
  C:0D5EH         LINE#         39
  -------         ENDPROC       _WRITE_DS1302_BYTE
  -------         PROC          _READ_DS1302_BYTE
  D:0007H         SYMBOL        address
  -------         DO            
  D:0007H         SYMBOL        i
  D:0005H         SYMBOL        temp
  -------         ENDDO         
  C:0BBEH         LINE#         42
  C:0BBEH         LINE#         43
  C:0BBEH         LINE#         44
  C:0BC0H         LINE#         45
  C:0BC3H         LINE#         46
  C:0BC6H         LINE#         47
  C:0BC9H         LINE#         48
  C:0BCCH         LINE#         49
  C:0BD8H         LINE#         50
  C:0BD8H         LINE#         51
  C:0BDAH         LINE#         52
  C:0BDEH         LINE#         53
BL51 BANKED LINKER/LOCATER V6.22.2.0                                                  03/16/2025  14:12:07  PAGE 14


  C:0BE1H         LINE#         54
  C:0BE4H         LINE#         55
  C:0BE6H         LINE#         56
  C:0BE9H         LINE#         57
  C:0BECH         LINE#         58
  C:0BEFH         LINE#         59
  C:0BF2H         LINE#         60
  C:0BF5H         LINE#         61
  C:0BF8H         LINE#         62
  C:0BFAH         LINE#         63
  -------         ENDPROC       _READ_DS1302_BYTE
  -------         PROC          TIME_INIT
  -------         DO            
  D:0014H         SYMBOL        add
  D:0016H         SYMBOL        i
  -------         ENDDO         
  C:0A1AH         LINE#         65
  C:0A1AH         LINE#         66
  C:0A1AH         LINE#         68
  C:0A20H         LINE#         69
  C:0A27H         LINE#         70
  C:0A2CH         LINE#         71
  C:0A2CH         LINE#         72
  C:0A5FH         LINE#         73
  C:0A6AH         LINE#         74
  C:0A7BH         LINE#         75
  -------         ENDPROC       TIME_INIT
  -------         PROC          TIME_GET
  -------         DO            
  D:0014H         SYMBOL        add
  D:0002H         SYMBOL        i
  D:0082H         SYMBOL        dat
  -------         ENDDO         
  C:0AE6H         LINE#         78
  C:0AE6H         LINE#         79
  C:0AE6H         LINE#         81
  C:0AECH         LINE#         82
  C:0AEFH         LINE#         83
  C:0AEFH         LINE#         84
  C:0AF9H         LINE#         85
  C:0B24H         LINE#         86
  C:0B2FH         LINE#         87
  C:0B3AH         LINE#         88
  -------         ENDPROC       TIME_GET
  -------         ENDMOD        DS1302

  -------         MODULE        ?C?IMUL
  C:0250H         PUBLIC        ?C?IMUL
  -------         ENDMOD        ?C?IMUL

  -------         MODULE        ?C?UIDIV
  C:0262H         PUBLIC        ?C?UIDIV
  -------         ENDMOD        ?C?UIDIV

  -------         MODULE        ?C?SIDIV
  C:02B7H         PUBLIC        ?C?SIDIV
  -------         ENDMOD        ?C?SIDIV
BL51 BANKED LINKER/LOCATER V6.22.2.0                                                  03/16/2025  14:12:07  PAGE 15



  -------         MODULE        ?C?LMUL
  C:02EDH         PUBLIC        ?C?LMUL
  -------         ENDMOD        ?C?LMUL

  -------         MODULE        ?C?ULDIV
  C:0378H         PUBLIC        ?C?ULDIV
  -------         ENDMOD        ?C?ULDIV

  -------         MODULE        ?C?SLDIV
  C:0B3BH         PUBLIC        ?C?SLDIV
  -------         ENDMOD        ?C?SLDIV

  -------         MODULE        ?C?LSHL
  C:040AH         PUBLIC        ?C?LSHL
  -------         ENDMOD        ?C?LSHL

Program Size: data=87.3 xdata=0 code=3402
LINK/LOCATE RUN COMPLETE.  0 WARNING(S),  0 ERROR(S)
